
build/runner:     file format elf64-x86-64


Disassembly of section .init:

0000000000001000 <_init>:
    1000:	f3 0f 1e fa          	endbr64 
    1004:	48 83 ec 08          	sub    $0x8,%rsp
    1008:	48 8b 05 d9 4f 00 00 	mov    0x4fd9(%rip),%rax        # 5fe8 <__gmon_start__>
    100f:	48 85 c0             	test   %rax,%rax
    1012:	74 02                	je     1016 <_init+0x16>
    1014:	ff d0                	callq  *%rax
    1016:	48 83 c4 08          	add    $0x8,%rsp
    101a:	c3                   	retq   

Disassembly of section .plt:

0000000000001020 <.plt>:
    1020:	ff 35 da 4e 00 00    	pushq  0x4eda(%rip)        # 5f00 <_GLOBAL_OFFSET_TABLE_+0x8>
    1026:	f2 ff 25 db 4e 00 00 	bnd jmpq *0x4edb(%rip)        # 5f08 <_GLOBAL_OFFSET_TABLE_+0x10>
    102d:	0f 1f 00             	nopl   (%rax)
    1030:	f3 0f 1e fa          	endbr64 
    1034:	68 00 00 00 00       	pushq  $0x0
    1039:	f2 e9 e1 ff ff ff    	bnd jmpq 1020 <.plt>
    103f:	90                   	nop
    1040:	f3 0f 1e fa          	endbr64 
    1044:	68 01 00 00 00       	pushq  $0x1
    1049:	f2 e9 d1 ff ff ff    	bnd jmpq 1020 <.plt>
    104f:	90                   	nop
    1050:	f3 0f 1e fa          	endbr64 
    1054:	68 02 00 00 00       	pushq  $0x2
    1059:	f2 e9 c1 ff ff ff    	bnd jmpq 1020 <.plt>
    105f:	90                   	nop
    1060:	f3 0f 1e fa          	endbr64 
    1064:	68 03 00 00 00       	pushq  $0x3
    1069:	f2 e9 b1 ff ff ff    	bnd jmpq 1020 <.plt>
    106f:	90                   	nop
    1070:	f3 0f 1e fa          	endbr64 
    1074:	68 04 00 00 00       	pushq  $0x4
    1079:	f2 e9 a1 ff ff ff    	bnd jmpq 1020 <.plt>
    107f:	90                   	nop
    1080:	f3 0f 1e fa          	endbr64 
    1084:	68 05 00 00 00       	pushq  $0x5
    1089:	f2 e9 91 ff ff ff    	bnd jmpq 1020 <.plt>
    108f:	90                   	nop
    1090:	f3 0f 1e fa          	endbr64 
    1094:	68 06 00 00 00       	pushq  $0x6
    1099:	f2 e9 81 ff ff ff    	bnd jmpq 1020 <.plt>
    109f:	90                   	nop
    10a0:	f3 0f 1e fa          	endbr64 
    10a4:	68 07 00 00 00       	pushq  $0x7
    10a9:	f2 e9 71 ff ff ff    	bnd jmpq 1020 <.plt>
    10af:	90                   	nop
    10b0:	f3 0f 1e fa          	endbr64 
    10b4:	68 08 00 00 00       	pushq  $0x8
    10b9:	f2 e9 61 ff ff ff    	bnd jmpq 1020 <.plt>
    10bf:	90                   	nop
    10c0:	f3 0f 1e fa          	endbr64 
    10c4:	68 09 00 00 00       	pushq  $0x9
    10c9:	f2 e9 51 ff ff ff    	bnd jmpq 1020 <.plt>
    10cf:	90                   	nop
    10d0:	f3 0f 1e fa          	endbr64 
    10d4:	68 0a 00 00 00       	pushq  $0xa
    10d9:	f2 e9 41 ff ff ff    	bnd jmpq 1020 <.plt>
    10df:	90                   	nop
    10e0:	f3 0f 1e fa          	endbr64 
    10e4:	68 0b 00 00 00       	pushq  $0xb
    10e9:	f2 e9 31 ff ff ff    	bnd jmpq 1020 <.plt>
    10ef:	90                   	nop
    10f0:	f3 0f 1e fa          	endbr64 
    10f4:	68 0c 00 00 00       	pushq  $0xc
    10f9:	f2 e9 21 ff ff ff    	bnd jmpq 1020 <.plt>
    10ff:	90                   	nop
    1100:	f3 0f 1e fa          	endbr64 
    1104:	68 0d 00 00 00       	pushq  $0xd
    1109:	f2 e9 11 ff ff ff    	bnd jmpq 1020 <.plt>
    110f:	90                   	nop
    1110:	f3 0f 1e fa          	endbr64 
    1114:	68 0e 00 00 00       	pushq  $0xe
    1119:	f2 e9 01 ff ff ff    	bnd jmpq 1020 <.plt>
    111f:	90                   	nop
    1120:	f3 0f 1e fa          	endbr64 
    1124:	68 0f 00 00 00       	pushq  $0xf
    1129:	f2 e9 f1 fe ff ff    	bnd jmpq 1020 <.plt>
    112f:	90                   	nop
    1130:	f3 0f 1e fa          	endbr64 
    1134:	68 10 00 00 00       	pushq  $0x10
    1139:	f2 e9 e1 fe ff ff    	bnd jmpq 1020 <.plt>
    113f:	90                   	nop
    1140:	f3 0f 1e fa          	endbr64 
    1144:	68 11 00 00 00       	pushq  $0x11
    1149:	f2 e9 d1 fe ff ff    	bnd jmpq 1020 <.plt>
    114f:	90                   	nop
    1150:	f3 0f 1e fa          	endbr64 
    1154:	68 12 00 00 00       	pushq  $0x12
    1159:	f2 e9 c1 fe ff ff    	bnd jmpq 1020 <.plt>
    115f:	90                   	nop
    1160:	f3 0f 1e fa          	endbr64 
    1164:	68 13 00 00 00       	pushq  $0x13
    1169:	f2 e9 b1 fe ff ff    	bnd jmpq 1020 <.plt>
    116f:	90                   	nop
    1170:	f3 0f 1e fa          	endbr64 
    1174:	68 14 00 00 00       	pushq  $0x14
    1179:	f2 e9 a1 fe ff ff    	bnd jmpq 1020 <.plt>
    117f:	90                   	nop
    1180:	f3 0f 1e fa          	endbr64 
    1184:	68 15 00 00 00       	pushq  $0x15
    1189:	f2 e9 91 fe ff ff    	bnd jmpq 1020 <.plt>
    118f:	90                   	nop
    1190:	f3 0f 1e fa          	endbr64 
    1194:	68 16 00 00 00       	pushq  $0x16
    1199:	f2 e9 81 fe ff ff    	bnd jmpq 1020 <.plt>
    119f:	90                   	nop
    11a0:	f3 0f 1e fa          	endbr64 
    11a4:	68 17 00 00 00       	pushq  $0x17
    11a9:	f2 e9 71 fe ff ff    	bnd jmpq 1020 <.plt>
    11af:	90                   	nop

Disassembly of section .plt.got:

00000000000011b0 <__cxa_finalize@plt>:
    11b0:	f3 0f 1e fa          	endbr64 
    11b4:	f2 ff 25 15 4e 00 00 	bnd jmpq *0x4e15(%rip)        # 5fd0 <__cxa_finalize@GLIBC_2.2.5>
    11bb:	0f 1f 44 00 00       	nopl   0x0(%rax,%rax,1)

Disassembly of section .plt.sec:

00000000000011c0 <_ZNSt7__cxx1112basic_stringIcSt11char_traitsIcESaIcEEaSERKS4_@plt>:
    11c0:	f3 0f 1e fa          	endbr64 
    11c4:	f2 ff 25 45 4d 00 00 	bnd jmpq *0x4d45(%rip)        # 5f10 <_ZNSt7__cxx1112basic_stringIcSt11char_traitsIcESaIcEEaSERKS4_@GLIBCXX_3.4.21>
    11cb:	0f 1f 44 00 00       	nopl   0x0(%rax,%rax,1)

00000000000011d0 <printf@plt>:
    11d0:	f3 0f 1e fa          	endbr64 
    11d4:	f2 ff 25 3d 4d 00 00 	bnd jmpq *0x4d3d(%rip)        # 5f18 <printf@GLIBC_2.2.5>
    11db:	0f 1f 44 00 00       	nopl   0x0(%rax,%rax,1)

00000000000011e0 <_ZNSt8__detail15_List_node_base7_M_hookEPS0_@plt>:
    11e0:	f3 0f 1e fa          	endbr64 
    11e4:	f2 ff 25 35 4d 00 00 	bnd jmpq *0x4d35(%rip)        # 5f20 <_ZNSt8__detail15_List_node_base7_M_hookEPS0_@GLIBCXX_3.4.15>
    11eb:	0f 1f 44 00 00       	nopl   0x0(%rax,%rax,1)

00000000000011f0 <_ZSt17__throw_bad_allocv@plt>:
    11f0:	f3 0f 1e fa          	endbr64 
    11f4:	f2 ff 25 2d 4d 00 00 	bnd jmpq *0x4d2d(%rip)        # 5f28 <_ZSt17__throw_bad_allocv@GLIBCXX_3.4>
    11fb:	0f 1f 44 00 00       	nopl   0x0(%rax,%rax,1)

0000000000001200 <_ZSt25__throw_bad_function_callv@plt>:
    1200:	f3 0f 1e fa          	endbr64 
    1204:	f2 ff 25 25 4d 00 00 	bnd jmpq *0x4d25(%rip)        # 5f30 <_ZSt25__throw_bad_function_callv@GLIBCXX_3.4.14>
    120b:	0f 1f 44 00 00       	nopl   0x0(%rax,%rax,1)

0000000000001210 <_ZNSt7__cxx1112basic_stringIcSt11char_traitsIcESaIcEEC1ERKS4_@plt>:
    1210:	f3 0f 1e fa          	endbr64 
    1214:	f2 ff 25 1d 4d 00 00 	bnd jmpq *0x4d1d(%rip)        # 5f38 <_ZNSt7__cxx1112basic_stringIcSt11char_traitsIcESaIcEEC1ERKS4_@GLIBCXX_3.4.21>
    121b:	0f 1f 44 00 00       	nopl   0x0(%rax,%rax,1)

0000000000001220 <_ZNSt7__cxx1112basic_stringIcSt11char_traitsIcESaIcEED1Ev@plt>:
    1220:	f3 0f 1e fa          	endbr64 
    1224:	f2 ff 25 15 4d 00 00 	bnd jmpq *0x4d15(%rip)        # 5f40 <_ZNSt7__cxx1112basic_stringIcSt11char_traitsIcESaIcEED1Ev@GLIBCXX_3.4.21>
    122b:	0f 1f 44 00 00       	nopl   0x0(%rax,%rax,1)

0000000000001230 <sysconf@plt>:
    1230:	f3 0f 1e fa          	endbr64 
    1234:	f2 ff 25 0d 4d 00 00 	bnd jmpq *0x4d0d(%rip)        # 5f48 <sysconf@GLIBC_2.2.5>
    123b:	0f 1f 44 00 00       	nopl   0x0(%rax,%rax,1)

0000000000001240 <__assert_fail@plt>:
    1240:	f3 0f 1e fa          	endbr64 
    1244:	f2 ff 25 05 4d 00 00 	bnd jmpq *0x4d05(%rip)        # 5f50 <__assert_fail@GLIBC_2.2.5>
    124b:	0f 1f 44 00 00       	nopl   0x0(%rax,%rax,1)

0000000000001250 <perror@plt>:
    1250:	f3 0f 1e fa          	endbr64 
    1254:	f2 ff 25 fd 4c 00 00 	bnd jmpq *0x4cfd(%rip)        # 5f58 <perror@GLIBC_2.2.5>
    125b:	0f 1f 44 00 00       	nopl   0x0(%rax,%rax,1)

0000000000001260 <__cxa_atexit@plt>:
    1260:	f3 0f 1e fa          	endbr64 
    1264:	f2 ff 25 f5 4c 00 00 	bnd jmpq *0x4cf5(%rip)        # 5f60 <__cxa_atexit@GLIBC_2.2.5>
    126b:	0f 1f 44 00 00       	nopl   0x0(%rax,%rax,1)

0000000000001270 <_ZdlPv@plt>:
    1270:	f3 0f 1e fa          	endbr64 
    1274:	f2 ff 25 ed 4c 00 00 	bnd jmpq *0x4ced(%rip)        # 5f68 <_ZdlPv@GLIBCXX_3.4>
    127b:	0f 1f 44 00 00       	nopl   0x0(%rax,%rax,1)

0000000000001280 <_ZStlsISt11char_traitsIcEERSt13basic_ostreamIcT_ES5_PKc@plt>:
    1280:	f3 0f 1e fa          	endbr64 
    1284:	f2 ff 25 e5 4c 00 00 	bnd jmpq *0x4ce5(%rip)        # 5f70 <_ZStlsISt11char_traitsIcEERSt13basic_ostreamIcT_ES5_PKc@GLIBCXX_3.4>
    128b:	0f 1f 44 00 00       	nopl   0x0(%rax,%rax,1)

0000000000001290 <_Znwm@plt>:
    1290:	f3 0f 1e fa          	endbr64 
    1294:	f2 ff 25 dd 4c 00 00 	bnd jmpq *0x4cdd(%rip)        # 5f78 <_Znwm@GLIBCXX_3.4>
    129b:	0f 1f 44 00 00       	nopl   0x0(%rax,%rax,1)

00000000000012a0 <_ZdlPvm@plt>:
    12a0:	f3 0f 1e fa          	endbr64 
    12a4:	f2 ff 25 d5 4c 00 00 	bnd jmpq *0x4cd5(%rip)        # 5f80 <_ZdlPvm@CXXABI_1.3.9>
    12ab:	0f 1f 44 00 00       	nopl   0x0(%rax,%rax,1)

00000000000012b0 <__stack_chk_fail@plt>:
    12b0:	f3 0f 1e fa          	endbr64 
    12b4:	f2 ff 25 cd 4c 00 00 	bnd jmpq *0x4ccd(%rip)        # 5f88 <__stack_chk_fail@GLIBC_2.4>
    12bb:	0f 1f 44 00 00       	nopl   0x0(%rax,%rax,1)

00000000000012c0 <exit@plt>:
    12c0:	f3 0f 1e fa          	endbr64 
    12c4:	f2 ff 25 c5 4c 00 00 	bnd jmpq *0x4cc5(%rip)        # 5f90 <exit@GLIBC_2.2.5>
    12cb:	0f 1f 44 00 00       	nopl   0x0(%rax,%rax,1)

00000000000012d0 <_ZNSt7__cxx1112basic_stringIcSt11char_traitsIcESaIcEEaSEPKc@plt>:
    12d0:	f3 0f 1e fa          	endbr64 
    12d4:	f2 ff 25 bd 4c 00 00 	bnd jmpq *0x4cbd(%rip)        # 5f98 <_ZNSt7__cxx1112basic_stringIcSt11char_traitsIcESaIcEEaSEPKc@GLIBCXX_3.4.21>
    12db:	0f 1f 44 00 00       	nopl   0x0(%rax,%rax,1)

00000000000012e0 <_ZNSt7__cxx1112basic_stringIcSt11char_traitsIcESaIcEEC1Ev@plt>:
    12e0:	f3 0f 1e fa          	endbr64 
    12e4:	f2 ff 25 b5 4c 00 00 	bnd jmpq *0x4cb5(%rip)        # 5fa0 <_ZNSt7__cxx1112basic_stringIcSt11char_traitsIcESaIcEEC1Ev@GLIBCXX_3.4.21>
    12eb:	0f 1f 44 00 00       	nopl   0x0(%rax,%rax,1)

00000000000012f0 <putchar@plt>:
    12f0:	f3 0f 1e fa          	endbr64 
    12f4:	f2 ff 25 ad 4c 00 00 	bnd jmpq *0x4cad(%rip)        # 5fa8 <putchar@GLIBC_2.2.5>
    12fb:	0f 1f 44 00 00       	nopl   0x0(%rax,%rax,1)

0000000000001300 <_ZNSt8ios_base4InitC1Ev@plt>:
    1300:	f3 0f 1e fa          	endbr64 
    1304:	f2 ff 25 a5 4c 00 00 	bnd jmpq *0x4ca5(%rip)        # 5fb0 <_ZNSt8ios_base4InitC1Ev@GLIBCXX_3.4>
    130b:	0f 1f 44 00 00       	nopl   0x0(%rax,%rax,1)

0000000000001310 <puts@plt>:
    1310:	f3 0f 1e fa          	endbr64 
    1314:	f2 ff 25 9d 4c 00 00 	bnd jmpq *0x4c9d(%rip)        # 5fb8 <puts@GLIBC_2.2.5>
    131b:	0f 1f 44 00 00       	nopl   0x0(%rax,%rax,1)

0000000000001320 <_Unwind_Resume@plt>:
    1320:	f3 0f 1e fa          	endbr64 
    1324:	f2 ff 25 95 4c 00 00 	bnd jmpq *0x4c95(%rip)        # 5fc0 <_Unwind_Resume@GCC_3.0>
    132b:	0f 1f 44 00 00       	nopl   0x0(%rax,%rax,1)

0000000000001330 <mmap@plt>:
    1330:	f3 0f 1e fa          	endbr64 
    1334:	f2 ff 25 8d 4c 00 00 	bnd jmpq *0x4c8d(%rip)        # 5fc8 <mmap@GLIBC_2.2.5>
    133b:	0f 1f 44 00 00       	nopl   0x0(%rax,%rax,1)

Disassembly of section .text:

0000000000001340 <_start>:
    1340:	f3 0f 1e fa          	endbr64 
    1344:	31 ed                	xor    %ebp,%ebp
    1346:	49 89 d1             	mov    %rdx,%r9
    1349:	5e                   	pop    %rsi
    134a:	48 89 e2             	mov    %rsp,%rdx
    134d:	48 83 e4 f0          	and    $0xfffffffffffffff0,%rsp
    1351:	50                   	push   %rax
    1352:	54                   	push   %rsp
    1353:	4c 8d 05 76 18 00 00 	lea    0x1876(%rip),%r8        # 2bd0 <__libc_csu_fini>
    135a:	48 8d 0d ff 17 00 00 	lea    0x17ff(%rip),%rcx        # 2b60 <__libc_csu_init>
    1361:	48 8d 3d de 16 00 00 	lea    0x16de(%rip),%rdi        # 2a46 <main>
    1368:	ff 15 72 4c 00 00    	callq  *0x4c72(%rip)        # 5fe0 <__libc_start_main@GLIBC_2.2.5>
    136e:	f4                   	hlt    
    136f:	90                   	nop

0000000000001370 <deregister_tm_clones>:
    1370:	48 8d 3d b1 4c 00 00 	lea    0x4cb1(%rip),%rdi        # 6028 <__TMC_END__>
    1377:	48 8d 05 aa 4c 00 00 	lea    0x4caa(%rip),%rax        # 6028 <__TMC_END__>
    137e:	48 39 f8             	cmp    %rdi,%rax
    1381:	74 15                	je     1398 <deregister_tm_clones+0x28>
    1383:	48 8b 05 4e 4c 00 00 	mov    0x4c4e(%rip),%rax        # 5fd8 <_ITM_deregisterTMCloneTable>
    138a:	48 85 c0             	test   %rax,%rax
    138d:	74 09                	je     1398 <deregister_tm_clones+0x28>
    138f:	ff e0                	jmpq   *%rax
    1391:	0f 1f 80 00 00 00 00 	nopl   0x0(%rax)
    1398:	c3                   	retq   
    1399:	0f 1f 80 00 00 00 00 	nopl   0x0(%rax)

00000000000013a0 <register_tm_clones>:
    13a0:	48 8d 3d 81 4c 00 00 	lea    0x4c81(%rip),%rdi        # 6028 <__TMC_END__>
    13a7:	48 8d 35 7a 4c 00 00 	lea    0x4c7a(%rip),%rsi        # 6028 <__TMC_END__>
    13ae:	48 29 fe             	sub    %rdi,%rsi
    13b1:	48 89 f0             	mov    %rsi,%rax
    13b4:	48 c1 ee 3f          	shr    $0x3f,%rsi
    13b8:	48 c1 f8 03          	sar    $0x3,%rax
    13bc:	48 01 c6             	add    %rax,%rsi
    13bf:	48 d1 fe             	sar    %rsi
    13c2:	74 14                	je     13d8 <register_tm_clones+0x38>
    13c4:	48 8b 05 25 4c 00 00 	mov    0x4c25(%rip),%rax        # 5ff0 <_ITM_registerTMCloneTable>
    13cb:	48 85 c0             	test   %rax,%rax
    13ce:	74 08                	je     13d8 <register_tm_clones+0x38>
    13d0:	ff e0                	jmpq   *%rax
    13d2:	66 0f 1f 44 00 00    	nopw   0x0(%rax,%rax,1)
    13d8:	c3                   	retq   
    13d9:	0f 1f 80 00 00 00 00 	nopl   0x0(%rax)

00000000000013e0 <__do_global_dtors_aux>:
    13e0:	f3 0f 1e fa          	endbr64 
    13e4:	80 3d 65 4d 00 00 00 	cmpb   $0x0,0x4d65(%rip)        # 6150 <completed.8061>
    13eb:	75 2b                	jne    1418 <__do_global_dtors_aux+0x38>
    13ed:	55                   	push   %rbp
    13ee:	48 83 3d da 4b 00 00 	cmpq   $0x0,0x4bda(%rip)        # 5fd0 <__cxa_finalize@GLIBC_2.2.5>
    13f5:	00 
    13f6:	48 89 e5             	mov    %rsp,%rbp
    13f9:	74 0c                	je     1407 <__do_global_dtors_aux+0x27>
    13fb:	48 8b 3d 06 4c 00 00 	mov    0x4c06(%rip),%rdi        # 6008 <__dso_handle>
    1402:	e8 a9 fd ff ff       	callq  11b0 <__cxa_finalize@plt>
    1407:	e8 64 ff ff ff       	callq  1370 <deregister_tm_clones>
    140c:	c6 05 3d 4d 00 00 01 	movb   $0x1,0x4d3d(%rip)        # 6150 <completed.8061>
    1413:	5d                   	pop    %rbp
    1414:	c3                   	retq   
    1415:	0f 1f 00             	nopl   (%rax)
    1418:	c3                   	retq   
    1419:	0f 1f 80 00 00 00 00 	nopl   0x0(%rax)

0000000000001420 <frame_dummy>:
    1420:	f3 0f 1e fa          	endbr64 
    1424:	e9 77 ff ff ff       	jmpq   13a0 <register_tm_clones>
    1429:	90                   	nop

000000000000142a <_ZN6ThreadC1Ev>:
    142a:	f3 0f 1e fa          	endbr64 
    142e:	55                   	push   %rbp
    142f:	48 89 e5             	mov    %rsp,%rbp
    1432:	53                   	push   %rbx
    1433:	48 83 ec 38          	sub    $0x38,%rsp
    1437:	48 89 7d c8          	mov    %rdi,-0x38(%rbp)
    143b:	48 8b 45 c8          	mov    -0x38(%rbp),%rax
    143f:	48 83 c0 08          	add    $0x8,%rax
    1443:	48 89 c7             	mov    %rax,%rdi
    1446:	e8 95 fe ff ff       	callq  12e0 <_ZNSt7__cxx1112basic_stringIcSt11char_traitsIcESaIcEEC1Ev@plt>
    144b:	48 8b 45 c8          	mov    -0x38(%rbp),%rax
    144f:	48 83 c0 28          	add    $0x28,%rax
    1453:	48 89 c7             	mov    %rax,%rdi
    1456:	e8 6f 08 00 00       	callq  1cca <_ZNSt8functionIFvvEEC1Ev>
    145b:	48 8b 45 c8          	mov    -0x38(%rbp),%rax
    145f:	48 8b 00             	mov    (%rax),%rax
    1462:	48 85 c0             	test   %rax,%rax
    1465:	74 1f                	je     1486 <_ZN6ThreadC1Ev+0x5c>
    1467:	48 8d 0d 9d 1b 00 00 	lea    0x1b9d(%rip),%rcx        # 300b <_ZStL6ignore+0x1>
    146e:	ba 16 00 00 00       	mov    $0x16,%edx
    1473:	48 8d 35 a2 1b 00 00 	lea    0x1ba2(%rip),%rsi        # 301c <_ZStL6ignore+0x12>
    147a:	48 8d 3d ab 1b 00 00 	lea    0x1bab(%rip),%rdi        # 302c <_ZStL6ignore+0x22>
    1481:	e8 ba fd ff ff       	callq  1240 <__assert_fail@plt>
    1486:	48 8b 05 cb 4c 00 00 	mov    0x4ccb(%rip),%rax        # 6158 <_ZN6Thread13threadIDCountE>
    148d:	48 8d 50 01          	lea    0x1(%rax),%rdx
    1491:	48 89 15 c0 4c 00 00 	mov    %rdx,0x4cc0(%rip)        # 6158 <_ZN6Thread13threadIDCountE>
    1498:	48 8b 55 c8          	mov    -0x38(%rbp),%rdx
    149c:	48 89 02             	mov    %rax,(%rdx)
    149f:	48 8b 45 c8          	mov    -0x38(%rbp),%rax
    14a3:	48 83 c0 08          	add    $0x8,%rax
    14a7:	48 8d 35 86 1b 00 00 	lea    0x1b86(%rip),%rsi        # 3034 <_ZStL6ignore+0x2a>
    14ae:	48 89 c7             	mov    %rax,%rdi
    14b1:	e8 1a fe ff ff       	callq  12d0 <_ZNSt7__cxx1112basic_stringIcSt11char_traitsIcESaIcEEaSEPKc@plt>
    14b6:	48 8b 45 c8          	mov    -0x38(%rbp),%rax
    14ba:	c6 40 48 01          	movb   $0x1,0x48(%rax)
    14be:	bf 1e 00 00 00       	mov    $0x1e,%edi
    14c3:	e8 68 fd ff ff       	callq  1230 <sysconf@plt>
    14c8:	48 89 05 99 4c 00 00 	mov    %rax,0x4c99(%rip)        # 6168 <PGSIZE>
    14cf:	48 8b 05 92 4c 00 00 	mov    0x4c92(%rip),%rax        # 6168 <PGSIZE>
    14d6:	48 83 e8 01          	sub    $0x1,%rax
    14da:	48 89 45 d0          	mov    %rax,-0x30(%rbp)
    14de:	48 89 e0             	mov    %rsp,%rax
    14e1:	48 89 45 d8          	mov    %rax,-0x28(%rbp)
    14e5:	48 8b 45 d0          	mov    -0x30(%rbp),%rax
    14e9:	48 f7 d0             	not    %rax
    14ec:	48 21 45 d8          	and    %rax,-0x28(%rbp)
    14f0:	48 8b 15 19 4b 00 00 	mov    0x4b19(%rip),%rdx        # 6010 <_ZN6Thread9stackSizeE>
    14f7:	48 8b 45 d8          	mov    -0x28(%rbp),%rax
    14fb:	48 01 d0             	add    %rdx,%rax
    14fe:	48 89 45 e0          	mov    %rax,-0x20(%rbp)
    1502:	48 8b 35 5f 4c 00 00 	mov    0x4c5f(%rip),%rsi        # 6168 <PGSIZE>
    1509:	48 8b 45 e0          	mov    -0x20(%rbp),%rax
    150d:	41 b9 00 00 00 00    	mov    $0x0,%r9d
    1513:	41 b8 ff ff ff ff    	mov    $0xffffffff,%r8d
    1519:	b9 22 00 00 00       	mov    $0x22,%ecx
    151e:	ba 00 00 00 00       	mov    $0x0,%edx
    1523:	48 89 c7             	mov    %rax,%rdi
    1526:	e8 05 fe ff ff       	callq  1330 <mmap@plt>
    152b:	48 89 45 e8          	mov    %rax,-0x18(%rbp)
    152f:	48 8b 45 e8          	mov    -0x18(%rbp),%rax
    1533:	48 3b 45 e0          	cmp    -0x20(%rbp),%rax
    1537:	75 07                	jne    1540 <_ZN6ThreadC1Ev+0x116>
    1539:	48 83 7d e8 ff       	cmpq   $0xffffffffffffffff,-0x18(%rbp)
    153e:	75 32                	jne    1572 <_ZN6ThreadC1Ev+0x148>
    1540:	48 8b 55 e0          	mov    -0x20(%rbp),%rdx
    1544:	48 8b 45 e8          	mov    -0x18(%rbp),%rax
    1548:	48 89 c6             	mov    %rax,%rsi
    154b:	48 8d 3d ee 1a 00 00 	lea    0x1aee(%rip),%rdi        # 3040 <_ZStL6ignore+0x36>
    1552:	b8 00 00 00 00       	mov    $0x0,%eax
    1557:	e8 74 fc ff ff       	callq  11d0 <printf@plt>
    155c:	48 8d 3d 2c 1b 00 00 	lea    0x1b2c(%rip),%rdi        # 308f <_ZStL6ignore+0x85>
    1563:	e8 e8 fc ff ff       	callq  1250 <perror@plt>
    1568:	bf 01 00 00 00       	mov    $0x1,%edi
    156d:	e8 4e fd ff ff       	callq  12c0 <exit@plt>
    1572:	48 8b 55 e0          	mov    -0x20(%rbp),%rdx
    1576:	48 8b 05 eb 4b 00 00 	mov    0x4beb(%rip),%rax        # 6168 <PGSIZE>
    157d:	48 01 d0             	add    %rdx,%rax
    1580:	48 89 05 d9 4b 00 00 	mov    %rax,0x4bd9(%rip)        # 6160 <_ZN6Thread9nextStackE>
    1587:	48 8b 45 c8          	mov    -0x38(%rbp),%rax
    158b:	c7 40 4c 00 00 00 00 	movl   $0x0,0x4c(%rax)
    1592:	eb 32                	jmp    15c6 <_ZN6ThreadC1Ev+0x19c>
    1594:	f3 0f 1e fa          	endbr64 
    1598:	48 89 c3             	mov    %rax,%rbx
    159b:	48 8b 45 c8          	mov    -0x38(%rbp),%rax
    159f:	48 83 c0 28          	add    $0x28,%rax
    15a3:	48 89 c7             	mov    %rax,%rdi
    15a6:	e8 ff 06 00 00       	callq  1caa <_ZNSt8functionIFvvEED1Ev>
    15ab:	48 8b 45 c8          	mov    -0x38(%rbp),%rax
    15af:	48 83 c0 08          	add    $0x8,%rax
    15b3:	48 89 c7             	mov    %rax,%rdi
    15b6:	e8 65 fc ff ff       	callq  1220 <_ZNSt7__cxx1112basic_stringIcSt11char_traitsIcESaIcEED1Ev@plt>
    15bb:	48 89 d8             	mov    %rbx,%rax
    15be:	48 89 c7             	mov    %rax,%rdi
    15c1:	e8 5a fd ff ff       	callq  1320 <_Unwind_Resume@plt>
    15c6:	48 83 c4 38          	add    $0x38,%rsp
    15ca:	5b                   	pop    %rbx
    15cb:	5d                   	pop    %rbp
    15cc:	c3                   	retq   
    15cd:	90                   	nop

00000000000015ce <_ZN6ThreadC1ENSt7__cxx1112basic_stringIcSt11char_traitsIcESaIcEEESt8functionIFvvEE>:
    15ce:	f3 0f 1e fa          	endbr64 
    15d2:	55                   	push   %rbp
    15d3:	48 89 e5             	mov    %rsp,%rbp
    15d6:	53                   	push   %rbx
    15d7:	48 83 ec 48          	sub    $0x48,%rsp
    15db:	48 89 7d c8          	mov    %rdi,-0x38(%rbp)
    15df:	48 89 75 c0          	mov    %rsi,-0x40(%rbp)
    15e3:	48 89 55 b8          	mov    %rdx,-0x48(%rbp)
    15e7:	48 8b 45 c8          	mov    -0x38(%rbp),%rax
    15eb:	48 83 c0 08          	add    $0x8,%rax
    15ef:	48 89 c7             	mov    %rax,%rdi
    15f2:	e8 e9 fc ff ff       	callq  12e0 <_ZNSt7__cxx1112basic_stringIcSt11char_traitsIcESaIcEEC1Ev@plt>
    15f7:	48 8b 45 c8          	mov    -0x38(%rbp),%rax
    15fb:	48 83 c0 28          	add    $0x28,%rax
    15ff:	48 89 c7             	mov    %rax,%rdi
    1602:	e8 c3 06 00 00       	callq  1cca <_ZNSt8functionIFvvEEC1Ev>
    1607:	48 8b 05 4a 4b 00 00 	mov    0x4b4a(%rip),%rax        # 6158 <_ZN6Thread13threadIDCountE>
    160e:	48 8d 50 01          	lea    0x1(%rax),%rdx
    1612:	48 89 15 3f 4b 00 00 	mov    %rdx,0x4b3f(%rip)        # 6158 <_ZN6Thread13threadIDCountE>
    1619:	48 8b 55 c8          	mov    -0x38(%rbp),%rdx
    161d:	48 89 02             	mov    %rax,(%rdx)
    1620:	48 8b 45 c8          	mov    -0x38(%rbp),%rax
    1624:	48 8d 50 08          	lea    0x8(%rax),%rdx
    1628:	48 8b 45 c0          	mov    -0x40(%rbp),%rax
    162c:	48 89 c6             	mov    %rax,%rsi
    162f:	48 89 d7             	mov    %rdx,%rdi
    1632:	e8 89 fb ff ff       	callq  11c0 <_ZNSt7__cxx1112basic_stringIcSt11char_traitsIcESaIcEEaSERKS4_@plt>
    1637:	48 8b 45 c8          	mov    -0x38(%rbp),%rax
    163b:	48 8d 50 28          	lea    0x28(%rax),%rdx
    163f:	48 8b 45 b8          	mov    -0x48(%rbp),%rax
    1643:	48 89 c6             	mov    %rax,%rsi
    1646:	48 89 d7             	mov    %rdx,%rdi
    1649:	e8 9c 06 00 00       	callq  1cea <_ZNSt8functionIFvvEEaSERKS1_>
    164e:	48 8b 45 c8          	mov    -0x38(%rbp),%rax
    1652:	c6 40 48 00          	movb   $0x0,0x48(%rax)
    1656:	48 8b 05 03 4b 00 00 	mov    0x4b03(%rip),%rax        # 6160 <_ZN6Thread9nextStackE>
    165d:	48 89 45 d8          	mov    %rax,-0x28(%rbp)
    1661:	48 8b 15 b0 49 00 00 	mov    0x49b0(%rip),%rdx        # 6018 <PREALLOC>
    1668:	48 8b 05 f9 4a 00 00 	mov    0x4af9(%rip),%rax        # 6168 <PGSIZE>
    166f:	48 89 d6             	mov    %rdx,%rsi
    1672:	48 0f af f0          	imul   %rax,%rsi
    1676:	48 8b 45 d8          	mov    -0x28(%rbp),%rax
    167a:	41 b9 00 00 00 00    	mov    $0x0,%r9d
    1680:	41 b8 ff ff ff ff    	mov    $0xffffffff,%r8d
    1686:	b9 22 00 00 00       	mov    $0x22,%ecx
    168b:	ba 03 00 00 00       	mov    $0x3,%edx
    1690:	48 89 c7             	mov    %rax,%rdi
    1693:	e8 98 fc ff ff       	callq  1330 <mmap@plt>
    1698:	48 89 45 e0          	mov    %rax,-0x20(%rbp)
    169c:	48 8b 45 e0          	mov    -0x20(%rbp),%rax
    16a0:	48 3b 45 d8          	cmp    -0x28(%rbp),%rax
    16a4:	75 07                	jne    16ad <_ZN6ThreadC1ENSt7__cxx1112basic_stringIcSt11char_traitsIcESaIcEEESt8functionIFvvEE+0xdf>
    16a6:	48 83 7d e0 ff       	cmpq   $0xffffffffffffffff,-0x20(%rbp)
    16ab:	75 32                	jne    16df <_ZN6ThreadC1ENSt7__cxx1112basic_stringIcSt11char_traitsIcESaIcEEESt8functionIFvvEE+0x111>
    16ad:	48 8b 55 d8          	mov    -0x28(%rbp),%rdx
    16b1:	48 8b 45 e0          	mov    -0x20(%rbp),%rax
    16b5:	48 89 c6             	mov    %rax,%rsi
    16b8:	48 8d 3d d1 19 00 00 	lea    0x19d1(%rip),%rdi        # 3090 <_ZStL6ignore+0x86>
    16bf:	b8 00 00 00 00       	mov    $0x0,%eax
    16c4:	e8 07 fb ff ff       	callq  11d0 <printf@plt>
    16c9:	48 8d 3d bf 19 00 00 	lea    0x19bf(%rip),%rdi        # 308f <_ZStL6ignore+0x85>
    16d0:	e8 7b fb ff ff       	callq  1250 <perror@plt>
    16d5:	bf 01 00 00 00       	mov    $0x1,%edi
    16da:	e8 e1 fb ff ff       	callq  12c0 <exit@plt>
    16df:	48 8b 15 7a 4a 00 00 	mov    0x4a7a(%rip),%rdx        # 6160 <_ZN6Thread9nextStackE>
    16e6:	48 8b 05 23 49 00 00 	mov    0x4923(%rip),%rax        # 6010 <_ZN6Thread9stackSizeE>
    16ed:	48 01 d0             	add    %rdx,%rax
    16f0:	48 89 45 e8          	mov    %rax,-0x18(%rbp)
    16f4:	48 8b 35 6d 4a 00 00 	mov    0x4a6d(%rip),%rsi        # 6168 <PGSIZE>
    16fb:	48 8b 45 e8          	mov    -0x18(%rbp),%rax
    16ff:	41 b9 00 00 00 00    	mov    $0x0,%r9d
    1705:	41 b8 ff ff ff ff    	mov    $0xffffffff,%r8d
    170b:	b9 22 00 00 00       	mov    $0x22,%ecx
    1710:	ba 00 00 00 00       	mov    $0x0,%edx
    1715:	48 89 c7             	mov    %rax,%rdi
    1718:	e8 13 fc ff ff       	callq  1330 <mmap@plt>
    171d:	48 89 45 e0          	mov    %rax,-0x20(%rbp)
    1721:	48 8b 45 e0          	mov    -0x20(%rbp),%rax
    1725:	48 3b 45 e8          	cmp    -0x18(%rbp),%rax
    1729:	75 07                	jne    1732 <_ZN6ThreadC1ENSt7__cxx1112basic_stringIcSt11char_traitsIcESaIcEEESt8functionIFvvEE+0x164>
    172b:	48 83 7d e0 ff       	cmpq   $0xffffffffffffffff,-0x20(%rbp)
    1730:	75 32                	jne    1764 <_ZN6ThreadC1ENSt7__cxx1112basic_stringIcSt11char_traitsIcESaIcEEESt8functionIFvvEE+0x196>
    1732:	48 8b 55 e8          	mov    -0x18(%rbp),%rdx
    1736:	48 8b 45 e0          	mov    -0x20(%rbp),%rax
    173a:	48 89 c6             	mov    %rax,%rsi
    173d:	48 8d 3d fc 18 00 00 	lea    0x18fc(%rip),%rdi        # 3040 <_ZStL6ignore+0x36>
    1744:	b8 00 00 00 00       	mov    $0x0,%eax
    1749:	e8 82 fa ff ff       	callq  11d0 <printf@plt>
    174e:	48 8d 3d 3a 19 00 00 	lea    0x193a(%rip),%rdi        # 308f <_ZStL6ignore+0x85>
    1755:	e8 f6 fa ff ff       	callq  1250 <perror@plt>
    175a:	bf 01 00 00 00       	mov    $0x1,%edi
    175f:	e8 5c fb ff ff       	callq  12c0 <exit@plt>
    1764:	48 8b 55 e8          	mov    -0x18(%rbp),%rdx
    1768:	48 8b 05 f9 49 00 00 	mov    0x49f9(%rip),%rax        # 6168 <PGSIZE>
    176f:	48 01 d0             	add    %rdx,%rax
    1772:	48 89 05 e7 49 00 00 	mov    %rax,0x49e7(%rip)        # 6160 <_ZN6Thread9nextStackE>
    1779:	48 8b 45 c8          	mov    -0x38(%rbp),%rax
    177d:	c7 40 4c 01 00 00 00 	movl   $0x1,0x4c(%rax)
    1784:	eb 32                	jmp    17b8 <_ZN6ThreadC1ENSt7__cxx1112basic_stringIcSt11char_traitsIcESaIcEEESt8functionIFvvEE+0x1ea>
    1786:	f3 0f 1e fa          	endbr64 
    178a:	48 89 c3             	mov    %rax,%rbx
    178d:	48 8b 45 c8          	mov    -0x38(%rbp),%rax
    1791:	48 83 c0 28          	add    $0x28,%rax
    1795:	48 89 c7             	mov    %rax,%rdi
    1798:	e8 0d 05 00 00       	callq  1caa <_ZNSt8functionIFvvEED1Ev>
    179d:	48 8b 45 c8          	mov    -0x38(%rbp),%rax
    17a1:	48 83 c0 08          	add    $0x8,%rax
    17a5:	48 89 c7             	mov    %rax,%rdi
    17a8:	e8 73 fa ff ff       	callq  1220 <_ZNSt7__cxx1112basic_stringIcSt11char_traitsIcESaIcEED1Ev@plt>
    17ad:	48 89 d8             	mov    %rbx,%rax
    17b0:	48 89 c7             	mov    %rax,%rdi
    17b3:	e8 68 fb ff ff       	callq  1320 <_Unwind_Resume@plt>
    17b8:	48 83 c4 48          	add    $0x48,%rsp
    17bc:	5b                   	pop    %rbx
    17bd:	5d                   	pop    %rbp
    17be:	c3                   	retq   
    17bf:	90                   	nop

00000000000017c0 <_ZN6Thread5StartEv>:
    17c0:	f3 0f 1e fa          	endbr64 
    17c4:	55                   	push   %rbp
    17c5:	48 89 e5             	mov    %rsp,%rbp
    17c8:	48 83 ec 10          	sub    $0x10,%rsp
    17cc:	48 89 7d f8          	mov    %rdi,-0x8(%rbp)
    17d0:	48 8b 45 f8          	mov    -0x8(%rbp),%rax
    17d4:	0f b6 40 48          	movzbl 0x48(%rax),%eax
    17d8:	83 f0 01             	xor    $0x1,%eax
    17db:	84 c0                	test   %al,%al
    17dd:	74 1c                	je     17fb <_ZN6Thread5StartEv+0x3b>
    17df:	48 8b 45 f8          	mov    -0x8(%rbp),%rax
    17e3:	48 83 c0 28          	add    $0x28,%rax
    17e7:	48 89 c7             	mov    %rax,%rdi
    17ea:	e8 6b 05 00 00       	callq  1d5a <_ZNKSt8functionIFvvEEclEv>
    17ef:	48 8b 45 f8          	mov    -0x8(%rbp),%rax
    17f3:	48 89 c7             	mov    %rax,%rdi
    17f6:	e8 b9 03 00 00       	callq  1bb4 <_ZN6Thread9TerminateEv>
    17fb:	48 8d 0d d8 18 00 00 	lea    0x18d8(%rip),%rcx        # 30da <_ZStL6ignore+0xd0>
    1802:	ba 63 00 00 00       	mov    $0x63,%edx
    1807:	48 8d 35 0e 18 00 00 	lea    0x180e(%rip),%rsi        # 301c <_ZStL6ignore+0x12>
    180e:	48 8d 3d da 18 00 00 	lea    0x18da(%rip),%rdi        # 30ef <_ZStL6ignore+0xe5>
    1815:	e8 26 fa ff ff       	callq  1240 <__assert_fail@plt>

000000000000181a <_ZN6Thread19printSavedRegistersEv>:
    181a:	f3 0f 1e fa          	endbr64 
    181e:	55                   	push   %rbp
    181f:	48 89 e5             	mov    %rsp,%rbp
    1822:	48 83 ec 10          	sub    $0x10,%rsp
    1826:	48 89 7d f8          	mov    %rdi,-0x8(%rbp)
    182a:	48 8d 3d db 18 00 00 	lea    0x18db(%rip),%rdi        # 310c <_ZStL6ignore+0x102>
    1831:	e8 da fa ff ff       	callq  1310 <puts@plt>
    1836:	48 8b 45 f8          	mov    -0x8(%rbp),%rax
    183a:	48 8b 40 50          	mov    0x50(%rax),%rax
    183e:	48 89 c2             	mov    %rax,%rdx
    1841:	48 8d 35 cf 18 00 00 	lea    0x18cf(%rip),%rsi        # 3117 <_ZStL6ignore+0x10d>
    1848:	48 8d 3d cc 18 00 00 	lea    0x18cc(%rip),%rdi        # 311b <_ZStL6ignore+0x111>
    184f:	b8 00 00 00 00       	mov    $0x0,%eax
    1854:	e8 77 f9 ff ff       	callq  11d0 <printf@plt>
    1859:	48 8b 45 f8          	mov    -0x8(%rbp),%rax
    185d:	48 8b 40 58          	mov    0x58(%rax),%rax
    1861:	48 89 c2             	mov    %rax,%rdx
    1864:	48 8d 35 ba 18 00 00 	lea    0x18ba(%rip),%rsi        # 3125 <_ZStL6ignore+0x11b>
    186b:	48 8d 3d a9 18 00 00 	lea    0x18a9(%rip),%rdi        # 311b <_ZStL6ignore+0x111>
    1872:	b8 00 00 00 00       	mov    $0x0,%eax
    1877:	e8 54 f9 ff ff       	callq  11d0 <printf@plt>
    187c:	48 8b 45 f8          	mov    -0x8(%rbp),%rax
    1880:	48 8b 40 60          	mov    0x60(%rax),%rax
    1884:	48 89 c2             	mov    %rax,%rdx
    1887:	48 8d 35 9b 18 00 00 	lea    0x189b(%rip),%rsi        # 3129 <_ZStL6ignore+0x11f>
    188e:	48 8d 3d 86 18 00 00 	lea    0x1886(%rip),%rdi        # 311b <_ZStL6ignore+0x111>
    1895:	b8 00 00 00 00       	mov    $0x0,%eax
    189a:	e8 31 f9 ff ff       	callq  11d0 <printf@plt>
    189f:	48 8b 45 f8          	mov    -0x8(%rbp),%rax
    18a3:	48 8b 40 68          	mov    0x68(%rax),%rax
    18a7:	48 89 c2             	mov    %rax,%rdx
    18aa:	48 8d 35 7c 18 00 00 	lea    0x187c(%rip),%rsi        # 312d <_ZStL6ignore+0x123>
    18b1:	48 8d 3d 63 18 00 00 	lea    0x1863(%rip),%rdi        # 311b <_ZStL6ignore+0x111>
    18b8:	b8 00 00 00 00       	mov    $0x0,%eax
    18bd:	e8 0e f9 ff ff       	callq  11d0 <printf@plt>
    18c2:	48 8b 45 f8          	mov    -0x8(%rbp),%rax
    18c6:	48 8b 40 70          	mov    0x70(%rax),%rax
    18ca:	48 89 c2             	mov    %rax,%rdx
    18cd:	48 8d 35 5d 18 00 00 	lea    0x185d(%rip),%rsi        # 3131 <_ZStL6ignore+0x127>
    18d4:	48 8d 3d 40 18 00 00 	lea    0x1840(%rip),%rdi        # 311b <_ZStL6ignore+0x111>
    18db:	b8 00 00 00 00       	mov    $0x0,%eax
    18e0:	e8 eb f8 ff ff       	callq  11d0 <printf@plt>
    18e5:	48 8b 45 f8          	mov    -0x8(%rbp),%rax
    18e9:	48 8b 40 78          	mov    0x78(%rax),%rax
    18ed:	48 89 c2             	mov    %rax,%rdx
    18f0:	48 8d 35 3e 18 00 00 	lea    0x183e(%rip),%rsi        # 3135 <_ZStL6ignore+0x12b>
    18f7:	48 8d 3d 1d 18 00 00 	lea    0x181d(%rip),%rdi        # 311b <_ZStL6ignore+0x111>
    18fe:	b8 00 00 00 00       	mov    $0x0,%eax
    1903:	e8 c8 f8 ff ff       	callq  11d0 <printf@plt>
    1908:	48 8b 45 f8          	mov    -0x8(%rbp),%rax
    190c:	48 8b 80 80 00 00 00 	mov    0x80(%rax),%rax
    1913:	48 89 c2             	mov    %rax,%rdx
    1916:	48 8d 35 1c 18 00 00 	lea    0x181c(%rip),%rsi        # 3139 <_ZStL6ignore+0x12f>
    191d:	48 8d 3d f7 17 00 00 	lea    0x17f7(%rip),%rdi        # 311b <_ZStL6ignore+0x111>
    1924:	b8 00 00 00 00       	mov    $0x0,%eax
    1929:	e8 a2 f8 ff ff       	callq  11d0 <printf@plt>
    192e:	48 8b 45 f8          	mov    -0x8(%rbp),%rax
    1932:	48 8b 80 88 00 00 00 	mov    0x88(%rax),%rax
    1939:	48 89 c2             	mov    %rax,%rdx
    193c:	48 8d 35 fa 17 00 00 	lea    0x17fa(%rip),%rsi        # 313d <_ZStL6ignore+0x133>
    1943:	48 8d 3d d1 17 00 00 	lea    0x17d1(%rip),%rdi        # 311b <_ZStL6ignore+0x111>
    194a:	b8 00 00 00 00       	mov    $0x0,%eax
    194f:	e8 7c f8 ff ff       	callq  11d0 <printf@plt>
    1954:	48 8b 45 f8          	mov    -0x8(%rbp),%rax
    1958:	48 8b 80 90 00 00 00 	mov    0x90(%rax),%rax
    195f:	48 89 c2             	mov    %rax,%rdx
    1962:	48 8d 35 d8 17 00 00 	lea    0x17d8(%rip),%rsi        # 3141 <_ZStL6ignore+0x137>
    1969:	48 8d 3d ab 17 00 00 	lea    0x17ab(%rip),%rdi        # 311b <_ZStL6ignore+0x111>
    1970:	b8 00 00 00 00       	mov    $0x0,%eax
    1975:	e8 56 f8 ff ff       	callq  11d0 <printf@plt>
    197a:	48 8b 45 f8          	mov    -0x8(%rbp),%rax
    197e:	48 8b 80 98 00 00 00 	mov    0x98(%rax),%rax
    1985:	48 89 c2             	mov    %rax,%rdx
    1988:	48 8d 35 b5 17 00 00 	lea    0x17b5(%rip),%rsi        # 3144 <_ZStL6ignore+0x13a>
    198f:	48 8d 3d 85 17 00 00 	lea    0x1785(%rip),%rdi        # 311b <_ZStL6ignore+0x111>
    1996:	b8 00 00 00 00       	mov    $0x0,%eax
    199b:	e8 30 f8 ff ff       	callq  11d0 <printf@plt>
    19a0:	48 8b 45 f8          	mov    -0x8(%rbp),%rax
    19a4:	48 8b 80 a0 00 00 00 	mov    0xa0(%rax),%rax
    19ab:	48 89 c2             	mov    %rax,%rdx
    19ae:	48 8d 35 92 17 00 00 	lea    0x1792(%rip),%rsi        # 3147 <_ZStL6ignore+0x13d>
    19b5:	48 8d 3d 5f 17 00 00 	lea    0x175f(%rip),%rdi        # 311b <_ZStL6ignore+0x111>
    19bc:	b8 00 00 00 00       	mov    $0x0,%eax
    19c1:	e8 0a f8 ff ff       	callq  11d0 <printf@plt>
    19c6:	48 8b 45 f8          	mov    -0x8(%rbp),%rax
    19ca:	48 8b 80 a8 00 00 00 	mov    0xa8(%rax),%rax
    19d1:	48 89 c2             	mov    %rax,%rdx
    19d4:	48 8d 35 70 17 00 00 	lea    0x1770(%rip),%rsi        # 314b <_ZStL6ignore+0x141>
    19db:	48 8d 3d 39 17 00 00 	lea    0x1739(%rip),%rdi        # 311b <_ZStL6ignore+0x111>
    19e2:	b8 00 00 00 00       	mov    $0x0,%eax
    19e7:	e8 e4 f7 ff ff       	callq  11d0 <printf@plt>
    19ec:	48 8b 45 f8          	mov    -0x8(%rbp),%rax
    19f0:	48 8b 80 b0 00 00 00 	mov    0xb0(%rax),%rax
    19f7:	48 89 c2             	mov    %rax,%rdx
    19fa:	48 8d 35 4e 17 00 00 	lea    0x174e(%rip),%rsi        # 314f <_ZStL6ignore+0x145>
    1a01:	48 8d 3d 13 17 00 00 	lea    0x1713(%rip),%rdi        # 311b <_ZStL6ignore+0x111>
    1a08:	b8 00 00 00 00       	mov    $0x0,%eax
    1a0d:	e8 be f7 ff ff       	callq  11d0 <printf@plt>
    1a12:	48 8b 45 f8          	mov    -0x8(%rbp),%rax
    1a16:	48 8b 80 b8 00 00 00 	mov    0xb8(%rax),%rax
    1a1d:	48 89 c2             	mov    %rax,%rdx
    1a20:	48 8d 35 2c 17 00 00 	lea    0x172c(%rip),%rsi        # 3153 <_ZStL6ignore+0x149>
    1a27:	48 8d 3d ed 16 00 00 	lea    0x16ed(%rip),%rdi        # 311b <_ZStL6ignore+0x111>
    1a2e:	b8 00 00 00 00       	mov    $0x0,%eax
    1a33:	e8 98 f7 ff ff       	callq  11d0 <printf@plt>
    1a38:	48 8b 45 f8          	mov    -0x8(%rbp),%rax
    1a3c:	48 8b 80 c0 00 00 00 	mov    0xc0(%rax),%rax
    1a43:	48 89 c2             	mov    %rax,%rdx
    1a46:	48 8d 35 0a 17 00 00 	lea    0x170a(%rip),%rsi        # 3157 <_ZStL6ignore+0x14d>
    1a4d:	48 8d 3d c7 16 00 00 	lea    0x16c7(%rip),%rdi        # 311b <_ZStL6ignore+0x111>
    1a54:	b8 00 00 00 00       	mov    $0x0,%eax
    1a59:	e8 72 f7 ff ff       	callq  11d0 <printf@plt>
    1a5e:	48 8b 45 f8          	mov    -0x8(%rbp),%rax
    1a62:	48 8b 80 c8 00 00 00 	mov    0xc8(%rax),%rax
    1a69:	48 89 c2             	mov    %rax,%rdx
    1a6c:	48 8d 35 e8 16 00 00 	lea    0x16e8(%rip),%rsi        # 315b <_ZStL6ignore+0x151>
    1a73:	48 8d 3d a1 16 00 00 	lea    0x16a1(%rip),%rdi        # 311b <_ZStL6ignore+0x111>
    1a7a:	b8 00 00 00 00       	mov    $0x0,%eax
    1a7f:	e8 4c f7 ff ff       	callq  11d0 <printf@plt>
    1a84:	bf 0a 00 00 00       	mov    $0xa,%edi
    1a89:	e8 62 f8 ff ff       	callq  12f0 <putchar@plt>
    1a8e:	48 8b 45 f8          	mov    -0x8(%rbp),%rax
    1a92:	48 8b 80 d0 00 00 00 	mov    0xd0(%rax),%rax
    1a99:	48 89 c2             	mov    %rax,%rdx
    1a9c:	48 8d 35 bc 16 00 00 	lea    0x16bc(%rip),%rsi        # 315f <_ZStL6ignore+0x155>
    1aa3:	48 8d 3d b9 16 00 00 	lea    0x16b9(%rip),%rdi        # 3163 <_ZStL6ignore+0x159>
    1aaa:	b8 00 00 00 00       	mov    $0x0,%eax
    1aaf:	e8 1c f7 ff ff       	callq  11d0 <printf@plt>
    1ab4:	90                   	nop
    1ab5:	c9                   	leaveq 
    1ab6:	c3                   	retq   
    1ab7:	90                   	nop

0000000000001ab8 <_ZN6Thread11SaveContextEv>:
    1ab8:	f3 0f 1e fa          	endbr64 
    1abc:	55                   	push   %rbp
    1abd:	48 89 e5             	mov    %rsp,%rbp
    1ac0:	48 83 ec 10          	sub    $0x10,%rsp
    1ac4:	48 89 7d f8          	mov    %rdi,-0x8(%rbp)
    1ac8:	49 89 c3             	mov    %rax,%r11
    1acb:	49 89 c9             	mov    %rcx,%r9
    1ace:	49 89 d0             	mov    %rdx,%r8
    1ad1:	48 89 ef             	mov    %rbp,%rdi
    1ad4:	48 89 e6             	mov    %rsp,%rsi
    1ad7:	48 89 f1             	mov    %rsi,%rcx
    1ada:	48 89 fa             	mov    %rdi,%rdx
    1add:	48 8b 45 f8          	mov    -0x8(%rbp),%rax
    1ae1:	4c 89 58 50          	mov    %r11,0x50(%rax)
    1ae5:	48 8b 45 f8          	mov    -0x8(%rbp),%rax
    1ae9:	4c 89 50 58          	mov    %r10,0x58(%rax)
    1aed:	48 8b 45 f8          	mov    -0x8(%rbp),%rax
    1af1:	4c 89 48 60          	mov    %r9,0x60(%rax)
    1af5:	48 8b 45 f8          	mov    -0x8(%rbp),%rax
    1af9:	4c 89 40 68          	mov    %r8,0x68(%rax)
    1afd:	48 8b 45 f8          	mov    -0x8(%rbp),%rax
    1b01:	48 89 78 70          	mov    %rdi,0x70(%rax)
    1b05:	48 8b 45 f8          	mov    -0x8(%rbp),%rax
    1b09:	48 89 70 78          	mov    %rsi,0x78(%rax)
    1b0d:	48 8b 45 f8          	mov    -0x8(%rbp),%rax
    1b11:	48 89 88 80 00 00 00 	mov    %rcx,0x80(%rax)
    1b18:	48 8b 45 f8          	mov    -0x8(%rbp),%rax
    1b1c:	48 89 90 88 00 00 00 	mov    %rdx,0x88(%rax)
    1b23:	4d 89 c3             	mov    %r8,%r11
    1b26:	4d 89 ca             	mov    %r9,%r10
    1b29:	4d 89 d1             	mov    %r10,%r9
    1b2c:	4d 89 d8             	mov    %r11,%r8
    1b2f:	4c 89 e7             	mov    %r12,%rdi
    1b32:	4c 89 ee             	mov    %r13,%rsi
    1b35:	4c 89 f1             	mov    %r14,%rcx
    1b38:	4c 89 fa             	mov    %r15,%rdx
    1b3b:	48 8b 45 f8          	mov    -0x8(%rbp),%rax
    1b3f:	4c 89 98 90 00 00 00 	mov    %r11,0x90(%rax)
    1b46:	48 8b 45 f8          	mov    -0x8(%rbp),%rax
    1b4a:	4c 89 90 98 00 00 00 	mov    %r10,0x98(%rax)
    1b51:	48 8b 45 f8          	mov    -0x8(%rbp),%rax
    1b55:	4c 89 88 a0 00 00 00 	mov    %r9,0xa0(%rax)
    1b5c:	48 8b 45 f8          	mov    -0x8(%rbp),%rax
    1b60:	4c 89 80 a8 00 00 00 	mov    %r8,0xa8(%rax)
    1b67:	48 8b 45 f8          	mov    -0x8(%rbp),%rax
    1b6b:	48 89 b8 b0 00 00 00 	mov    %rdi,0xb0(%rax)
    1b72:	48 8b 45 f8          	mov    -0x8(%rbp),%rax
    1b76:	48 89 b0 b8 00 00 00 	mov    %rsi,0xb8(%rax)
    1b7d:	48 8b 45 f8          	mov    -0x8(%rbp),%rax
    1b81:	48 89 88 c0 00 00 00 	mov    %rcx,0xc0(%rax)
    1b88:	48 8b 45 f8          	mov    -0x8(%rbp),%rax
    1b8c:	48 89 90 c8 00 00 00 	mov    %rdx,0xc8(%rax)
    1b93:	48 8d 15 00 00 00 00 	lea    0x0(%rip),%rdx        # 1b9a <_ZN6Thread11SaveContextEv+0xe2>
    1b9a:	48 8b 45 f8          	mov    -0x8(%rbp),%rax
    1b9e:	48 89 90 d0 00 00 00 	mov    %rdx,0xd0(%rax)
    1ba5:	48 8b 45 f8          	mov    -0x8(%rbp),%rax
    1ba9:	48 89 c7             	mov    %rax,%rdi
    1bac:	e8 69 fc ff ff       	callq  181a <_ZN6Thread19printSavedRegistersEv>
    1bb1:	90                   	nop
    1bb2:	c9                   	leaveq 
    1bb3:	c3                   	retq   

0000000000001bb4 <_ZN6Thread9TerminateEv>:
    1bb4:	f3 0f 1e fa          	endbr64 
    1bb8:	55                   	push   %rbp
    1bb9:	48 89 e5             	mov    %rsp,%rbp
    1bbc:	48 89 7d f8          	mov    %rdi,-0x8(%rbp)
    1bc0:	48 8b 45 f8          	mov    -0x8(%rbp),%rax
    1bc4:	c7 40 4c 02 00 00 00 	movl   $0x2,0x4c(%rax)
    1bcb:	90                   	nop
    1bcc:	5d                   	pop    %rbp
    1bcd:	c3                   	retq   

0000000000001bce <_Z41__static_initialization_and_destruction_0ii>:
    1bce:	f3 0f 1e fa          	endbr64 
    1bd2:	55                   	push   %rbp
    1bd3:	48 89 e5             	mov    %rsp,%rbp
    1bd6:	48 83 ec 10          	sub    $0x10,%rsp
    1bda:	89 7d fc             	mov    %edi,-0x4(%rbp)
    1bdd:	89 75 f8             	mov    %esi,-0x8(%rbp)
    1be0:	83 7d fc 01          	cmpl   $0x1,-0x4(%rbp)
    1be4:	75 32                	jne    1c18 <_Z41__static_initialization_and_destruction_0ii+0x4a>
    1be6:	81 7d f8 ff ff 00 00 	cmpl   $0xffff,-0x8(%rbp)
    1bed:	75 29                	jne    1c18 <_Z41__static_initialization_and_destruction_0ii+0x4a>
    1bef:	48 8d 3d 7a 45 00 00 	lea    0x457a(%rip),%rdi        # 6170 <_ZStL8__ioinit>
    1bf6:	e8 05 f7 ff ff       	callq  1300 <_ZNSt8ios_base4InitC1Ev@plt>
    1bfb:	48 8d 15 06 44 00 00 	lea    0x4406(%rip),%rdx        # 6008 <__dso_handle>
    1c02:	48 8d 35 67 45 00 00 	lea    0x4567(%rip),%rsi        # 6170 <_ZStL8__ioinit>
    1c09:	48 8b 05 e8 43 00 00 	mov    0x43e8(%rip),%rax        # 5ff8 <_ZNSt8ios_base4InitD1Ev@GLIBCXX_3.4>
    1c10:	48 89 c7             	mov    %rax,%rdi
    1c13:	e8 48 f6 ff ff       	callq  1260 <__cxa_atexit@plt>
    1c18:	90                   	nop
    1c19:	c9                   	leaveq 
    1c1a:	c3                   	retq   

0000000000001c1b <_GLOBAL__sub_I__ZN6Thread13threadIDCountE>:
    1c1b:	f3 0f 1e fa          	endbr64 
    1c1f:	55                   	push   %rbp
    1c20:	48 89 e5             	mov    %rsp,%rbp
    1c23:	be ff ff 00 00       	mov    $0xffff,%esi
    1c28:	bf 01 00 00 00       	mov    $0x1,%edi
    1c2d:	e8 9c ff ff ff       	callq  1bce <_Z41__static_initialization_and_destruction_0ii>
    1c32:	5d                   	pop    %rbp
    1c33:	c3                   	retq   

0000000000001c34 <_ZNSt14_Function_baseC1Ev>:
    1c34:	f3 0f 1e fa          	endbr64 
    1c38:	55                   	push   %rbp
    1c39:	48 89 e5             	mov    %rsp,%rbp
    1c3c:	48 89 7d f8          	mov    %rdi,-0x8(%rbp)
    1c40:	48 8b 45 f8          	mov    -0x8(%rbp),%rax
    1c44:	48 c7 40 10 00 00 00 	movq   $0x0,0x10(%rax)
    1c4b:	00 
    1c4c:	90                   	nop
    1c4d:	5d                   	pop    %rbp
    1c4e:	c3                   	retq   
    1c4f:	90                   	nop

0000000000001c50 <_ZNSt14_Function_baseD1Ev>:
    1c50:	f3 0f 1e fa          	endbr64 
    1c54:	55                   	push   %rbp
    1c55:	48 89 e5             	mov    %rsp,%rbp
    1c58:	48 83 ec 10          	sub    $0x10,%rsp
    1c5c:	48 89 7d f8          	mov    %rdi,-0x8(%rbp)
    1c60:	48 8b 45 f8          	mov    -0x8(%rbp),%rax
    1c64:	48 8b 40 10          	mov    0x10(%rax),%rax
    1c68:	48 85 c0             	test   %rax,%rax
    1c6b:	74 1e                	je     1c8b <_ZNSt14_Function_baseD1Ev+0x3b>
    1c6d:	48 8b 45 f8          	mov    -0x8(%rbp),%rax
    1c71:	4c 8b 40 10          	mov    0x10(%rax),%r8
    1c75:	48 8b 4d f8          	mov    -0x8(%rbp),%rcx
    1c79:	48 8b 45 f8          	mov    -0x8(%rbp),%rax
    1c7d:	ba 03 00 00 00       	mov    $0x3,%edx
    1c82:	48 89 ce             	mov    %rcx,%rsi
    1c85:	48 89 c7             	mov    %rax,%rdi
    1c88:	41 ff d0             	callq  *%r8
    1c8b:	90                   	nop
    1c8c:	c9                   	leaveq 
    1c8d:	c3                   	retq   

0000000000001c8e <_ZNKSt14_Function_base8_M_emptyEv>:
    1c8e:	f3 0f 1e fa          	endbr64 
    1c92:	55                   	push   %rbp
    1c93:	48 89 e5             	mov    %rsp,%rbp
    1c96:	48 89 7d f8          	mov    %rdi,-0x8(%rbp)
    1c9a:	48 8b 45 f8          	mov    -0x8(%rbp),%rax
    1c9e:	48 8b 40 10          	mov    0x10(%rax),%rax
    1ca2:	48 85 c0             	test   %rax,%rax
    1ca5:	0f 94 c0             	sete   %al
    1ca8:	5d                   	pop    %rbp
    1ca9:	c3                   	retq   

0000000000001caa <_ZNSt8functionIFvvEED1Ev>:
    1caa:	f3 0f 1e fa          	endbr64 
    1cae:	55                   	push   %rbp
    1caf:	48 89 e5             	mov    %rsp,%rbp
    1cb2:	48 83 ec 10          	sub    $0x10,%rsp
    1cb6:	48 89 7d f8          	mov    %rdi,-0x8(%rbp)
    1cba:	48 8b 45 f8          	mov    -0x8(%rbp),%rax
    1cbe:	48 89 c7             	mov    %rax,%rdi
    1cc1:	e8 8a ff ff ff       	callq  1c50 <_ZNSt14_Function_baseD1Ev>
    1cc6:	90                   	nop
    1cc7:	c9                   	leaveq 
    1cc8:	c3                   	retq   
    1cc9:	90                   	nop

0000000000001cca <_ZNSt8functionIFvvEEC1Ev>:
    1cca:	f3 0f 1e fa          	endbr64 
    1cce:	55                   	push   %rbp
    1ccf:	48 89 e5             	mov    %rsp,%rbp
    1cd2:	48 83 ec 10          	sub    $0x10,%rsp
    1cd6:	48 89 7d f8          	mov    %rdi,-0x8(%rbp)
    1cda:	48 8b 45 f8          	mov    -0x8(%rbp),%rax
    1cde:	48 89 c7             	mov    %rax,%rdi
    1ce1:	e8 4e ff ff ff       	callq  1c34 <_ZNSt14_Function_baseC1Ev>
    1ce6:	90                   	nop
    1ce7:	c9                   	leaveq 
    1ce8:	c3                   	retq   
    1ce9:	90                   	nop

0000000000001cea <_ZNSt8functionIFvvEEaSERKS1_>:
    1cea:	f3 0f 1e fa          	endbr64 
    1cee:	55                   	push   %rbp
    1cef:	48 89 e5             	mov    %rsp,%rbp
    1cf2:	48 83 ec 40          	sub    $0x40,%rsp
    1cf6:	48 89 7d c8          	mov    %rdi,-0x38(%rbp)
    1cfa:	48 89 75 c0          	mov    %rsi,-0x40(%rbp)
    1cfe:	64 48 8b 04 25 28 00 	mov    %fs:0x28,%rax
    1d05:	00 00 
    1d07:	48 89 45 f8          	mov    %rax,-0x8(%rbp)
    1d0b:	31 c0                	xor    %eax,%eax
    1d0d:	48 8b 55 c0          	mov    -0x40(%rbp),%rdx
    1d11:	48 8d 45 d0          	lea    -0x30(%rbp),%rax
    1d15:	48 89 d6             	mov    %rdx,%rsi
    1d18:	48 89 c7             	mov    %rax,%rdi
    1d1b:	e8 74 00 00 00       	callq  1d94 <_ZNSt8functionIFvvEEC1ERKS1_>
    1d20:	48 8b 55 c8          	mov    -0x38(%rbp),%rdx
    1d24:	48 8d 45 d0          	lea    -0x30(%rbp),%rax
    1d28:	48 89 d6             	mov    %rdx,%rsi
    1d2b:	48 89 c7             	mov    %rax,%rdi
    1d2e:	e8 f9 00 00 00       	callq  1e2c <_ZNSt8functionIFvvEE4swapERS1_>
    1d33:	48 8d 45 d0          	lea    -0x30(%rbp),%rax
    1d37:	48 89 c7             	mov    %rax,%rdi
    1d3a:	e8 6b ff ff ff       	callq  1caa <_ZNSt8functionIFvvEED1Ev>
    1d3f:	48 8b 45 c8          	mov    -0x38(%rbp),%rax
    1d43:	48 8b 4d f8          	mov    -0x8(%rbp),%rcx
    1d47:	64 48 33 0c 25 28 00 	xor    %fs:0x28,%rcx
    1d4e:	00 00 
    1d50:	74 05                	je     1d57 <_ZNSt8functionIFvvEEaSERKS1_+0x6d>
    1d52:	e8 59 f5 ff ff       	callq  12b0 <__stack_chk_fail@plt>
    1d57:	c9                   	leaveq 
    1d58:	c3                   	retq   
    1d59:	90                   	nop

0000000000001d5a <_ZNKSt8functionIFvvEEclEv>:
    1d5a:	f3 0f 1e fa          	endbr64 
    1d5e:	55                   	push   %rbp
    1d5f:	48 89 e5             	mov    %rsp,%rbp
    1d62:	48 83 ec 10          	sub    $0x10,%rsp
    1d66:	48 89 7d f8          	mov    %rdi,-0x8(%rbp)
    1d6a:	48 8b 45 f8          	mov    -0x8(%rbp),%rax
    1d6e:	48 89 c7             	mov    %rax,%rdi
    1d71:	e8 18 ff ff ff       	callq  1c8e <_ZNKSt14_Function_base8_M_emptyEv>
    1d76:	84 c0                	test   %al,%al
    1d78:	74 05                	je     1d7f <_ZNKSt8functionIFvvEEclEv+0x25>
    1d7a:	e8 81 f4 ff ff       	callq  1200 <_ZSt25__throw_bad_function_callv@plt>
    1d7f:	48 8b 45 f8          	mov    -0x8(%rbp),%rax
    1d83:	48 8b 50 18          	mov    0x18(%rax),%rdx
    1d87:	48 8b 45 f8          	mov    -0x8(%rbp),%rax
    1d8b:	48 89 c7             	mov    %rax,%rdi
    1d8e:	ff d2                	callq  *%rdx
    1d90:	90                   	nop
    1d91:	c9                   	leaveq 
    1d92:	c3                   	retq   
    1d93:	90                   	nop

0000000000001d94 <_ZNSt8functionIFvvEEC1ERKS1_>:
    1d94:	f3 0f 1e fa          	endbr64 
    1d98:	55                   	push   %rbp
    1d99:	48 89 e5             	mov    %rsp,%rbp
    1d9c:	53                   	push   %rbx
    1d9d:	48 83 ec 18          	sub    $0x18,%rsp
    1da1:	48 89 7d e8          	mov    %rdi,-0x18(%rbp)
    1da5:	48 89 75 e0          	mov    %rsi,-0x20(%rbp)
    1da9:	48 8b 45 e8          	mov    -0x18(%rbp),%rax
    1dad:	48 89 c7             	mov    %rax,%rdi
    1db0:	e8 7f fe ff ff       	callq  1c34 <_ZNSt14_Function_baseC1Ev>
    1db5:	48 8b 45 e0          	mov    -0x20(%rbp),%rax
    1db9:	48 89 c7             	mov    %rax,%rdi
    1dbc:	e8 cb 00 00 00       	callq  1e8c <_ZNKSt8functionIFvvEEcvbEv>
    1dc1:	84 c0                	test   %al,%al
    1dc3:	74 5e                	je     1e23 <_ZNSt8functionIFvvEEC1ERKS1_+0x8f>
    1dc5:	48 8b 45 e0          	mov    -0x20(%rbp),%rax
    1dc9:	4c 8b 40 10          	mov    0x10(%rax),%r8
    1dcd:	48 8b 4d e0          	mov    -0x20(%rbp),%rcx
    1dd1:	48 8b 45 e8          	mov    -0x18(%rbp),%rax
    1dd5:	ba 02 00 00 00       	mov    $0x2,%edx
    1dda:	48 89 ce             	mov    %rcx,%rsi
    1ddd:	48 89 c7             	mov    %rax,%rdi
    1de0:	41 ff d0             	callq  *%r8
    1de3:	48 8b 45 e0          	mov    -0x20(%rbp),%rax
    1de7:	48 8b 50 18          	mov    0x18(%rax),%rdx
    1deb:	48 8b 45 e8          	mov    -0x18(%rbp),%rax
    1def:	48 89 50 18          	mov    %rdx,0x18(%rax)
    1df3:	48 8b 45 e0          	mov    -0x20(%rbp),%rax
    1df7:	48 8b 50 10          	mov    0x10(%rax),%rdx
    1dfb:	48 8b 45 e8          	mov    -0x18(%rbp),%rax
    1dff:	48 89 50 10          	mov    %rdx,0x10(%rax)
    1e03:	eb 1e                	jmp    1e23 <_ZNSt8functionIFvvEEC1ERKS1_+0x8f>
    1e05:	f3 0f 1e fa          	endbr64 
    1e09:	48 89 c3             	mov    %rax,%rbx
    1e0c:	48 8b 45 e8          	mov    -0x18(%rbp),%rax
    1e10:	48 89 c7             	mov    %rax,%rdi
    1e13:	e8 38 fe ff ff       	callq  1c50 <_ZNSt14_Function_baseD1Ev>
    1e18:	48 89 d8             	mov    %rbx,%rax
    1e1b:	48 89 c7             	mov    %rax,%rdi
    1e1e:	e8 fd f4 ff ff       	callq  1320 <_Unwind_Resume@plt>
    1e23:	90                   	nop
    1e24:	48 83 c4 18          	add    $0x18,%rsp
    1e28:	5b                   	pop    %rbx
    1e29:	5d                   	pop    %rbp
    1e2a:	c3                   	retq   
    1e2b:	90                   	nop

0000000000001e2c <_ZNSt8functionIFvvEE4swapERS1_>:
    1e2c:	f3 0f 1e fa          	endbr64 
    1e30:	55                   	push   %rbp
    1e31:	48 89 e5             	mov    %rsp,%rbp
    1e34:	48 83 ec 10          	sub    $0x10,%rsp
    1e38:	48 89 7d f8          	mov    %rdi,-0x8(%rbp)
    1e3c:	48 89 75 f0          	mov    %rsi,-0x10(%rbp)
    1e40:	48 8b 55 f0          	mov    -0x10(%rbp),%rdx
    1e44:	48 8b 45 f8          	mov    -0x8(%rbp),%rax
    1e48:	48 89 d6             	mov    %rdx,%rsi
    1e4b:	48 89 c7             	mov    %rax,%rdi
    1e4e:	e8 6c 00 00 00       	callq  1ebf <_ZSt4swapISt9_Any_dataENSt9enable_ifIXsrSt6__and_IJSt6__not_ISt15__is_tuple_likeIT_EESt21is_move_constructibleIS5_ESt18is_move_assignableIS5_EEE5valueEvE4typeERS5_SF_>
    1e53:	48 8b 45 f0          	mov    -0x10(%rbp),%rax
    1e57:	48 8d 50 10          	lea    0x10(%rax),%rdx
    1e5b:	48 8b 45 f8          	mov    -0x8(%rbp),%rax
    1e5f:	48 83 c0 10          	add    $0x10,%rax
    1e63:	48 89 d6             	mov    %rdx,%rsi
    1e66:	48 89 c7             	mov    %rax,%rdi
    1e69:	e8 f4 00 00 00       	callq  1f62 <_ZSt4swapIPFbRSt9_Any_dataRKS0_St18_Manager_operationEENSt9enable_ifIXsrSt6__and_IJSt6__not_ISt15__is_tuple_likeIT_EESt21is_move_constructibleISB_ESt18is_move_assignableISB_EEE5valueEvE4typeERSB_SL_>
    1e6e:	48 8b 45 f0          	mov    -0x10(%rbp),%rax
    1e72:	48 8d 50 18          	lea    0x18(%rax),%rdx
    1e76:	48 8b 45 f8          	mov    -0x8(%rbp),%rax
    1e7a:	48 83 c0 18          	add    $0x18,%rax
    1e7e:	48 89 d6             	mov    %rdx,%rsi
    1e81:	48 89 c7             	mov    %rax,%rdi
    1e84:	e8 64 01 00 00       	callq  1fed <_ZSt4swapIPFvRKSt9_Any_dataEENSt9enable_ifIXsrSt6__and_IJSt6__not_ISt15__is_tuple_likeIT_EESt21is_move_constructibleIS9_ESt18is_move_assignableIS9_EEE5valueEvE4typeERS9_SJ_>
    1e89:	90                   	nop
    1e8a:	c9                   	leaveq 
    1e8b:	c3                   	retq   

0000000000001e8c <_ZNKSt8functionIFvvEEcvbEv>:
    1e8c:	f3 0f 1e fa          	endbr64 
    1e90:	55                   	push   %rbp
    1e91:	48 89 e5             	mov    %rsp,%rbp
    1e94:	48 83 ec 10          	sub    $0x10,%rsp
    1e98:	48 89 7d f8          	mov    %rdi,-0x8(%rbp)
    1e9c:	48 8b 45 f8          	mov    -0x8(%rbp),%rax
    1ea0:	48 89 c7             	mov    %rax,%rdi
    1ea3:	e8 e6 fd ff ff       	callq  1c8e <_ZNKSt14_Function_base8_M_emptyEv>
    1ea8:	83 f0 01             	xor    $0x1,%eax
    1eab:	c9                   	leaveq 
    1eac:	c3                   	retq   

0000000000001ead <_ZSt4moveIRSt9_Any_dataEONSt16remove_referenceIT_E4typeEOS3_>:
    1ead:	f3 0f 1e fa          	endbr64 
    1eb1:	55                   	push   %rbp
    1eb2:	48 89 e5             	mov    %rsp,%rbp
    1eb5:	48 89 7d f8          	mov    %rdi,-0x8(%rbp)
    1eb9:	48 8b 45 f8          	mov    -0x8(%rbp),%rax
    1ebd:	5d                   	pop    %rbp
    1ebe:	c3                   	retq   

0000000000001ebf <_ZSt4swapISt9_Any_dataENSt9enable_ifIXsrSt6__and_IJSt6__not_ISt15__is_tuple_likeIT_EESt21is_move_constructibleIS5_ESt18is_move_assignableIS5_EEE5valueEvE4typeERS5_SF_>:
    1ebf:	f3 0f 1e fa          	endbr64 
    1ec3:	55                   	push   %rbp
    1ec4:	48 89 e5             	mov    %rsp,%rbp
    1ec7:	48 83 ec 30          	sub    $0x30,%rsp
    1ecb:	48 89 7d d8          	mov    %rdi,-0x28(%rbp)
    1ecf:	48 89 75 d0          	mov    %rsi,-0x30(%rbp)
    1ed3:	64 48 8b 04 25 28 00 	mov    %fs:0x28,%rax
    1eda:	00 00 
    1edc:	48 89 45 f8          	mov    %rax,-0x8(%rbp)
    1ee0:	31 c0                	xor    %eax,%eax
    1ee2:	48 8b 45 d8          	mov    -0x28(%rbp),%rax
    1ee6:	48 89 c7             	mov    %rax,%rdi
    1ee9:	e8 bf ff ff ff       	callq  1ead <_ZSt4moveIRSt9_Any_dataEONSt16remove_referenceIT_E4typeEOS3_>
    1eee:	48 8b 50 08          	mov    0x8(%rax),%rdx
    1ef2:	48 8b 00             	mov    (%rax),%rax
    1ef5:	48 89 45 e0          	mov    %rax,-0x20(%rbp)
    1ef9:	48 89 55 e8          	mov    %rdx,-0x18(%rbp)
    1efd:	48 8b 45 d0          	mov    -0x30(%rbp),%rax
    1f01:	48 89 c7             	mov    %rax,%rdi
    1f04:	e8 a4 ff ff ff       	callq  1ead <_ZSt4moveIRSt9_Any_dataEONSt16remove_referenceIT_E4typeEOS3_>
    1f09:	48 8b 4d d8          	mov    -0x28(%rbp),%rcx
    1f0d:	48 8b 50 08          	mov    0x8(%rax),%rdx
    1f11:	48 8b 00             	mov    (%rax),%rax
    1f14:	48 89 01             	mov    %rax,(%rcx)
    1f17:	48 89 51 08          	mov    %rdx,0x8(%rcx)
    1f1b:	48 8d 45 e0          	lea    -0x20(%rbp),%rax
    1f1f:	48 89 c7             	mov    %rax,%rdi
    1f22:	e8 86 ff ff ff       	callq  1ead <_ZSt4moveIRSt9_Any_dataEONSt16remove_referenceIT_E4typeEOS3_>
    1f27:	48 8b 4d d0          	mov    -0x30(%rbp),%rcx
    1f2b:	48 8b 50 08          	mov    0x8(%rax),%rdx
    1f2f:	48 8b 00             	mov    (%rax),%rax
    1f32:	48 89 01             	mov    %rax,(%rcx)
    1f35:	48 89 51 08          	mov    %rdx,0x8(%rcx)
    1f39:	90                   	nop
    1f3a:	48 8b 45 f8          	mov    -0x8(%rbp),%rax
    1f3e:	64 48 33 04 25 28 00 	xor    %fs:0x28,%rax
    1f45:	00 00 
    1f47:	74 05                	je     1f4e <_ZSt4swapISt9_Any_dataENSt9enable_ifIXsrSt6__and_IJSt6__not_ISt15__is_tuple_likeIT_EESt21is_move_constructibleIS5_ESt18is_move_assignableIS5_EEE5valueEvE4typeERS5_SF_+0x8f>
    1f49:	e8 62 f3 ff ff       	callq  12b0 <__stack_chk_fail@plt>
    1f4e:	c9                   	leaveq 
    1f4f:	c3                   	retq   

0000000000001f50 <_ZSt4moveIRPFbRSt9_Any_dataRKS0_St18_Manager_operationEEONSt16remove_referenceIT_E4typeEOS9_>:
    1f50:	f3 0f 1e fa          	endbr64 
    1f54:	55                   	push   %rbp
    1f55:	48 89 e5             	mov    %rsp,%rbp
    1f58:	48 89 7d f8          	mov    %rdi,-0x8(%rbp)
    1f5c:	48 8b 45 f8          	mov    -0x8(%rbp),%rax
    1f60:	5d                   	pop    %rbp
    1f61:	c3                   	retq   

0000000000001f62 <_ZSt4swapIPFbRSt9_Any_dataRKS0_St18_Manager_operationEENSt9enable_ifIXsrSt6__and_IJSt6__not_ISt15__is_tuple_likeIT_EESt21is_move_constructibleISB_ESt18is_move_assignableISB_EEE5valueEvE4typeERSB_SL_>:
    1f62:	f3 0f 1e fa          	endbr64 
    1f66:	55                   	push   %rbp
    1f67:	48 89 e5             	mov    %rsp,%rbp
    1f6a:	48 83 ec 20          	sub    $0x20,%rsp
    1f6e:	48 89 7d e8          	mov    %rdi,-0x18(%rbp)
    1f72:	48 89 75 e0          	mov    %rsi,-0x20(%rbp)
    1f76:	64 48 8b 04 25 28 00 	mov    %fs:0x28,%rax
    1f7d:	00 00 
    1f7f:	48 89 45 f8          	mov    %rax,-0x8(%rbp)
    1f83:	31 c0                	xor    %eax,%eax
    1f85:	48 8b 45 e8          	mov    -0x18(%rbp),%rax
    1f89:	48 89 c7             	mov    %rax,%rdi
    1f8c:	e8 bf ff ff ff       	callq  1f50 <_ZSt4moveIRPFbRSt9_Any_dataRKS0_St18_Manager_operationEEONSt16remove_referenceIT_E4typeEOS9_>
    1f91:	48 8b 00             	mov    (%rax),%rax
    1f94:	48 89 45 f0          	mov    %rax,-0x10(%rbp)
    1f98:	48 8b 45 e0          	mov    -0x20(%rbp),%rax
    1f9c:	48 89 c7             	mov    %rax,%rdi
    1f9f:	e8 ac ff ff ff       	callq  1f50 <_ZSt4moveIRPFbRSt9_Any_dataRKS0_St18_Manager_operationEEONSt16remove_referenceIT_E4typeEOS9_>
    1fa4:	48 8b 10             	mov    (%rax),%rdx
    1fa7:	48 8b 45 e8          	mov    -0x18(%rbp),%rax
    1fab:	48 89 10             	mov    %rdx,(%rax)
    1fae:	48 8d 45 f0          	lea    -0x10(%rbp),%rax
    1fb2:	48 89 c7             	mov    %rax,%rdi
    1fb5:	e8 96 ff ff ff       	callq  1f50 <_ZSt4moveIRPFbRSt9_Any_dataRKS0_St18_Manager_operationEEONSt16remove_referenceIT_E4typeEOS9_>
    1fba:	48 8b 10             	mov    (%rax),%rdx
    1fbd:	48 8b 45 e0          	mov    -0x20(%rbp),%rax
    1fc1:	48 89 10             	mov    %rdx,(%rax)
    1fc4:	90                   	nop
    1fc5:	48 8b 45 f8          	mov    -0x8(%rbp),%rax
    1fc9:	64 48 33 04 25 28 00 	xor    %fs:0x28,%rax
    1fd0:	00 00 
    1fd2:	74 05                	je     1fd9 <_ZSt4swapIPFbRSt9_Any_dataRKS0_St18_Manager_operationEENSt9enable_ifIXsrSt6__and_IJSt6__not_ISt15__is_tuple_likeIT_EESt21is_move_constructibleISB_ESt18is_move_assignableISB_EEE5valueEvE4typeERSB_SL_+0x77>
    1fd4:	e8 d7 f2 ff ff       	callq  12b0 <__stack_chk_fail@plt>
    1fd9:	c9                   	leaveq 
    1fda:	c3                   	retq   

0000000000001fdb <_ZSt4moveIRPFvRKSt9_Any_dataEEONSt16remove_referenceIT_E4typeEOS7_>:
    1fdb:	f3 0f 1e fa          	endbr64 
    1fdf:	55                   	push   %rbp
    1fe0:	48 89 e5             	mov    %rsp,%rbp
    1fe3:	48 89 7d f8          	mov    %rdi,-0x8(%rbp)
    1fe7:	48 8b 45 f8          	mov    -0x8(%rbp),%rax
    1feb:	5d                   	pop    %rbp
    1fec:	c3                   	retq   

0000000000001fed <_ZSt4swapIPFvRKSt9_Any_dataEENSt9enable_ifIXsrSt6__and_IJSt6__not_ISt15__is_tuple_likeIT_EESt21is_move_constructibleIS9_ESt18is_move_assignableIS9_EEE5valueEvE4typeERS9_SJ_>:
    1fed:	f3 0f 1e fa          	endbr64 
    1ff1:	55                   	push   %rbp
    1ff2:	48 89 e5             	mov    %rsp,%rbp
    1ff5:	48 83 ec 20          	sub    $0x20,%rsp
    1ff9:	48 89 7d e8          	mov    %rdi,-0x18(%rbp)
    1ffd:	48 89 75 e0          	mov    %rsi,-0x20(%rbp)
    2001:	64 48 8b 04 25 28 00 	mov    %fs:0x28,%rax
    2008:	00 00 
    200a:	48 89 45 f8          	mov    %rax,-0x8(%rbp)
    200e:	31 c0                	xor    %eax,%eax
    2010:	48 8b 45 e8          	mov    -0x18(%rbp),%rax
    2014:	48 89 c7             	mov    %rax,%rdi
    2017:	e8 bf ff ff ff       	callq  1fdb <_ZSt4moveIRPFvRKSt9_Any_dataEEONSt16remove_referenceIT_E4typeEOS7_>
    201c:	48 8b 00             	mov    (%rax),%rax
    201f:	48 89 45 f0          	mov    %rax,-0x10(%rbp)
    2023:	48 8b 45 e0          	mov    -0x20(%rbp),%rax
    2027:	48 89 c7             	mov    %rax,%rdi
    202a:	e8 ac ff ff ff       	callq  1fdb <_ZSt4moveIRPFvRKSt9_Any_dataEEONSt16remove_referenceIT_E4typeEOS7_>
    202f:	48 8b 10             	mov    (%rax),%rdx
    2032:	48 8b 45 e8          	mov    -0x18(%rbp),%rax
    2036:	48 89 10             	mov    %rdx,(%rax)
    2039:	48 8d 45 f0          	lea    -0x10(%rbp),%rax
    203d:	48 89 c7             	mov    %rax,%rdi
    2040:	e8 96 ff ff ff       	callq  1fdb <_ZSt4moveIRPFvRKSt9_Any_dataEEONSt16remove_referenceIT_E4typeEOS7_>
    2045:	48 8b 10             	mov    (%rax),%rdx
    2048:	48 8b 45 e0          	mov    -0x20(%rbp),%rax
    204c:	48 89 10             	mov    %rdx,(%rax)
    204f:	90                   	nop
    2050:	48 8b 45 f8          	mov    -0x8(%rbp),%rax
    2054:	64 48 33 04 25 28 00 	xor    %fs:0x28,%rax
    205b:	00 00 
    205d:	74 05                	je     2064 <_ZSt4swapIPFvRKSt9_Any_dataEENSt9enable_ifIXsrSt6__and_IJSt6__not_ISt15__is_tuple_likeIT_EESt21is_move_constructibleIS9_ESt18is_move_assignableIS9_EEE5valueEvE4typeERS9_SJ_+0x77>
    205f:	e8 4c f2 ff ff       	callq  12b0 <__stack_chk_fail@plt>
    2064:	c9                   	leaveq 
    2065:	c3                   	retq   

0000000000002066 <_ZN8DThreads4InitEv>:
    2066:	f3 0f 1e fa          	endbr64 
    206a:	55                   	push   %rbp
    206b:	48 89 e5             	mov    %rsp,%rbp
    206e:	41 54                	push   %r12
    2070:	53                   	push   %rbx
    2071:	bf d8 00 00 00       	mov    $0xd8,%edi
    2076:	e8 15 f2 ff ff       	callq  1290 <_Znwm@plt>
    207b:	48 89 c3             	mov    %rax,%rbx
    207e:	48 89 df             	mov    %rbx,%rdi
    2081:	e8 a4 f3 ff ff       	callq  142a <_ZN6ThreadC1Ev>
    2086:	48 89 1d f3 40 00 00 	mov    %rbx,0x40f3(%rip)        # 6180 <_ZN8DThreads7runningE>
    208d:	48 8d 35 ec 40 00 00 	lea    0x40ec(%rip),%rsi        # 6180 <_ZN8DThreads7runningE>
    2094:	48 8d 3d f5 40 00 00 	lea    0x40f5(%rip),%rdi        # 6190 <_ZN8DThreads7threadsB5cxx11E>
    209b:	e8 86 03 00 00       	callq  2426 <_ZNSt7__cxx114listIP6ThreadSaIS2_EE9push_backERKS2_>
    20a0:	c6 05 01 41 00 00 01 	movb   $0x1,0x4101(%rip)        # 61a8 <_ZN8DThreads11initializedE>
    20a7:	eb 1f                	jmp    20c8 <_ZN8DThreads4InitEv+0x62>
    20a9:	f3 0f 1e fa          	endbr64 
    20ad:	49 89 c4             	mov    %rax,%r12
    20b0:	be d8 00 00 00       	mov    $0xd8,%esi
    20b5:	48 89 df             	mov    %rbx,%rdi
    20b8:	e8 e3 f1 ff ff       	callq  12a0 <_ZdlPvm@plt>
    20bd:	4c 89 e0             	mov    %r12,%rax
    20c0:	48 89 c7             	mov    %rax,%rdi
    20c3:	e8 58 f2 ff ff       	callq  1320 <_Unwind_Resume@plt>
    20c8:	5b                   	pop    %rbx
    20c9:	41 5c                	pop    %r12
    20cb:	5d                   	pop    %rbp
    20cc:	c3                   	retq   
    20cd:	90                   	nop

00000000000020ce <_ZN8DThreads6CreateENSt7__cxx1112basic_stringIcSt11char_traitsIcESaIcEEESt8functionIFvvEE>:
    20ce:	f3 0f 1e fa          	endbr64 
    20d2:	55                   	push   %rbp
    20d3:	48 89 e5             	mov    %rsp,%rbp
    20d6:	41 55                	push   %r13
    20d8:	41 54                	push   %r12
    20da:	53                   	push   %rbx
    20db:	48 83 ec 78          	sub    $0x78,%rsp
    20df:	48 89 bd 78 ff ff ff 	mov    %rdi,-0x88(%rbp)
    20e6:	48 89 b5 70 ff ff ff 	mov    %rsi,-0x90(%rbp)
    20ed:	64 48 8b 04 25 28 00 	mov    %fs:0x28,%rax
    20f4:	00 00 
    20f6:	48 89 45 d8          	mov    %rax,-0x28(%rbp)
    20fa:	31 c0                	xor    %eax,%eax
    20fc:	0f b6 05 a5 40 00 00 	movzbl 0x40a5(%rip),%eax        # 61a8 <_ZN8DThreads11initializedE>
    2103:	84 c0                	test   %al,%al
    2105:	75 1f                	jne    2126 <_ZN8DThreads6CreateENSt7__cxx1112basic_stringIcSt11char_traitsIcESaIcEEESt8functionIFvvEE+0x58>
    2107:	48 8d 0d 6a 10 00 00 	lea    0x106a(%rip),%rcx        # 3178 <_ZStL6ignore+0x6>
    210e:	ba 16 00 00 00       	mov    $0x16,%edx
    2113:	48 8d 35 9f 10 00 00 	lea    0x109f(%rip),%rsi        # 31b9 <_ZStL6ignore+0x47>
    211a:	48 8d 3d aa 10 00 00 	lea    0x10aa(%rip),%rdi        # 31cb <_ZStL6ignore+0x59>
    2121:	e8 1a f1 ff ff       	callq  1240 <__assert_fail@plt>
    2126:	48 8b 95 78 ff ff ff 	mov    -0x88(%rbp),%rdx
    212d:	48 8d 45 90          	lea    -0x70(%rbp),%rax
    2131:	48 89 d6             	mov    %rdx,%rsi
    2134:	48 89 c7             	mov    %rax,%rdi
    2137:	e8 d4 f0 ff ff       	callq  1210 <_ZNSt7__cxx1112basic_stringIcSt11char_traitsIcESaIcEEC1ERKS4_@plt>
    213c:	4c 8d 65 90          	lea    -0x70(%rbp),%r12
    2140:	48 8b 95 70 ff ff ff 	mov    -0x90(%rbp),%rdx
    2147:	48 8d 45 b0          	lea    -0x50(%rbp),%rax
    214b:	48 89 d6             	mov    %rdx,%rsi
    214e:	48 89 c7             	mov    %rax,%rdi
    2151:	e8 3e fc ff ff       	callq  1d94 <_ZNSt8functionIFvvEEC1ERKS1_>
    2156:	4c 8d 6d b0          	lea    -0x50(%rbp),%r13
    215a:	bf d8 00 00 00       	mov    $0xd8,%edi
    215f:	e8 2c f1 ff ff       	callq  1290 <_Znwm@plt>
    2164:	48 89 c3             	mov    %rax,%rbx
    2167:	4c 89 ea             	mov    %r13,%rdx
    216a:	4c 89 e6             	mov    %r12,%rsi
    216d:	48 89 df             	mov    %rbx,%rdi
    2170:	e8 59 f4 ff ff       	callq  15ce <_ZN6ThreadC1ENSt7__cxx1112basic_stringIcSt11char_traitsIcESaIcEEESt8functionIFvvEE>
    2175:	48 89 5d 88          	mov    %rbx,-0x78(%rbp)
    2179:	48 8d 45 b0          	lea    -0x50(%rbp),%rax
    217d:	48 89 c7             	mov    %rax,%rdi
    2180:	e8 25 fb ff ff       	callq  1caa <_ZNSt8functionIFvvEED1Ev>
    2185:	48 8d 45 90          	lea    -0x70(%rbp),%rax
    2189:	48 89 c7             	mov    %rax,%rdi
    218c:	e8 8f f0 ff ff       	callq  1220 <_ZNSt7__cxx1112basic_stringIcSt11char_traitsIcESaIcEED1Ev@plt>
    2191:	48 8d 45 88          	lea    -0x78(%rbp),%rax
    2195:	48 89 c6             	mov    %rax,%rsi
    2198:	48 8d 3d f1 3f 00 00 	lea    0x3ff1(%rip),%rdi        # 6190 <_ZN8DThreads7threadsB5cxx11E>
    219f:	e8 82 02 00 00       	callq  2426 <_ZNSt7__cxx114listIP6ThreadSaIS2_EE9push_backERKS2_>
    21a4:	90                   	nop
    21a5:	48 8b 45 d8          	mov    -0x28(%rbp),%rax
    21a9:	64 48 33 04 25 28 00 	xor    %fs:0x28,%rax
    21b0:	00 00 
    21b2:	74 53                	je     2207 <_ZN8DThreads6CreateENSt7__cxx1112basic_stringIcSt11char_traitsIcESaIcEEESt8functionIFvvEE+0x139>
    21b4:	eb 4c                	jmp    2202 <_ZN8DThreads6CreateENSt7__cxx1112basic_stringIcSt11char_traitsIcESaIcEEESt8functionIFvvEE+0x134>
    21b6:	f3 0f 1e fa          	endbr64 
    21ba:	49 89 c4             	mov    %rax,%r12
    21bd:	be d8 00 00 00       	mov    $0xd8,%esi
    21c2:	48 89 df             	mov    %rbx,%rdi
    21c5:	e8 d6 f0 ff ff       	callq  12a0 <_ZdlPvm@plt>
    21ca:	4c 89 e3             	mov    %r12,%rbx
    21cd:	eb 07                	jmp    21d6 <_ZN8DThreads6CreateENSt7__cxx1112basic_stringIcSt11char_traitsIcESaIcEEESt8functionIFvvEE+0x108>
    21cf:	f3 0f 1e fa          	endbr64 
    21d3:	48 89 c3             	mov    %rax,%rbx
    21d6:	48 8d 45 b0          	lea    -0x50(%rbp),%rax
    21da:	48 89 c7             	mov    %rax,%rdi
    21dd:	e8 c8 fa ff ff       	callq  1caa <_ZNSt8functionIFvvEED1Ev>
    21e2:	eb 07                	jmp    21eb <_ZN8DThreads6CreateENSt7__cxx1112basic_stringIcSt11char_traitsIcESaIcEEESt8functionIFvvEE+0x11d>
    21e4:	f3 0f 1e fa          	endbr64 
    21e8:	48 89 c3             	mov    %rax,%rbx
    21eb:	48 8d 45 90          	lea    -0x70(%rbp),%rax
    21ef:	48 89 c7             	mov    %rax,%rdi
    21f2:	e8 29 f0 ff ff       	callq  1220 <_ZNSt7__cxx1112basic_stringIcSt11char_traitsIcESaIcEED1Ev@plt>
    21f7:	48 89 d8             	mov    %rbx,%rax
    21fa:	48 89 c7             	mov    %rax,%rdi
    21fd:	e8 1e f1 ff ff       	callq  1320 <_Unwind_Resume@plt>
    2202:	e8 a9 f0 ff ff       	callq  12b0 <__stack_chk_fail@plt>
    2207:	48 83 c4 78          	add    $0x78,%rsp
    220b:	5b                   	pop    %rbx
    220c:	41 5c                	pop    %r12
    220e:	41 5d                	pop    %r13
    2210:	5d                   	pop    %rbp
    2211:	c3                   	retq   

0000000000002212 <_ZN8DThreads5YieldEv>:
    2212:	f3 0f 1e fa          	endbr64 
    2216:	55                   	push   %rbp
    2217:	48 89 e5             	mov    %rsp,%rbp
    221a:	0f b6 05 87 3f 00 00 	movzbl 0x3f87(%rip),%eax        # 61a8 <_ZN8DThreads11initializedE>
    2221:	84 c0                	test   %al,%al
    2223:	75 1f                	jne    2244 <_ZN8DThreads5YieldEv+0x32>
    2225:	48 8d 0d ab 0f 00 00 	lea    0xfab(%rip),%rcx        # 31d7 <_ZStL6ignore+0x65>
    222c:	ba 1d 00 00 00       	mov    $0x1d,%edx
    2231:	48 8d 35 81 0f 00 00 	lea    0xf81(%rip),%rsi        # 31b9 <_ZStL6ignore+0x47>
    2238:	48 8d 3d b6 0f 00 00 	lea    0xfb6(%rip),%rdi        # 31f5 <_ZStL6ignore+0x83>
    223f:	e8 fc ef ff ff       	callq  1240 <__assert_fail@plt>
    2244:	48 8b 05 35 3f 00 00 	mov    0x3f35(%rip),%rax        # 6180 <_ZN8DThreads7runningE>
    224b:	48 89 c7             	mov    %rax,%rdi
    224e:	e8 65 f8 ff ff       	callq  1ab8 <_ZN6Thread11SaveContextEv>
    2253:	90                   	nop
    2254:	5d                   	pop    %rbp
    2255:	c3                   	retq   

0000000000002256 <_Z41__static_initialization_and_destruction_0ii>:
    2256:	f3 0f 1e fa          	endbr64 
    225a:	55                   	push   %rbp
    225b:	48 89 e5             	mov    %rsp,%rbp
    225e:	48 83 ec 10          	sub    $0x10,%rsp
    2262:	89 7d fc             	mov    %edi,-0x4(%rbp)
    2265:	89 75 f8             	mov    %esi,-0x8(%rbp)
    2268:	83 7d fc 01          	cmpl   $0x1,-0x4(%rbp)
    226c:	75 58                	jne    22c6 <_Z41__static_initialization_and_destruction_0ii+0x70>
    226e:	81 7d f8 ff ff 00 00 	cmpl   $0xffff,-0x8(%rbp)
    2275:	75 4f                	jne    22c6 <_Z41__static_initialization_and_destruction_0ii+0x70>
    2277:	48 8d 3d 2b 3f 00 00 	lea    0x3f2b(%rip),%rdi        # 61a9 <_ZStL8__ioinit>
    227e:	e8 7d f0 ff ff       	callq  1300 <_ZNSt8ios_base4InitC1Ev@plt>
    2283:	48 8d 15 7e 3d 00 00 	lea    0x3d7e(%rip),%rdx        # 6008 <__dso_handle>
    228a:	48 8d 35 18 3f 00 00 	lea    0x3f18(%rip),%rsi        # 61a9 <_ZStL8__ioinit>
    2291:	48 8b 05 60 3d 00 00 	mov    0x3d60(%rip),%rax        # 5ff8 <_ZNSt8ios_base4InitD1Ev@GLIBCXX_3.4>
    2298:	48 89 c7             	mov    %rax,%rdi
    229b:	e8 c0 ef ff ff       	callq  1260 <__cxa_atexit@plt>
    22a0:	48 8d 3d e9 3e 00 00 	lea    0x3ee9(%rip),%rdi        # 6190 <_ZN8DThreads7threadsB5cxx11E>
    22a7:	e8 e2 00 00 00       	callq  238e <_ZNSt7__cxx114listIP6ThreadSaIS2_EEC1Ev>
    22ac:	48 8d 15 55 3d 00 00 	lea    0x3d55(%rip),%rdx        # 6008 <__dso_handle>
    22b3:	48 8d 35 d6 3e 00 00 	lea    0x3ed6(%rip),%rsi        # 6190 <_ZN8DThreads7threadsB5cxx11E>
    22ba:	48 8d 3d 43 07 00 00 	lea    0x743(%rip),%rdi        # 2a04 <_ZNSt7__cxx114listIP6ThreadSaIS2_EED1Ev>
    22c1:	e8 9a ef ff ff       	callq  1260 <__cxa_atexit@plt>
    22c6:	90                   	nop
    22c7:	c9                   	leaveq 
    22c8:	c3                   	retq   

00000000000022c9 <_GLOBAL__sub_I__ZN8DThreads7runningE>:
    22c9:	f3 0f 1e fa          	endbr64 
    22cd:	55                   	push   %rbp
    22ce:	48 89 e5             	mov    %rsp,%rbp
    22d1:	be ff ff 00 00       	mov    $0xffff,%esi
    22d6:	bf 01 00 00 00       	mov    $0x1,%edi
    22db:	e8 76 ff ff ff       	callq  2256 <_Z41__static_initialization_and_destruction_0ii>
    22e0:	5d                   	pop    %rbp
    22e1:	c3                   	retq   

00000000000022e2 <_ZnwmPv>:
    22e2:	f3 0f 1e fa          	endbr64 
    22e6:	55                   	push   %rbp
    22e7:	48 89 e5             	mov    %rsp,%rbp
    22ea:	48 89 7d f8          	mov    %rdi,-0x8(%rbp)
    22ee:	48 89 75 f0          	mov    %rsi,-0x10(%rbp)
    22f2:	48 8b 45 f0          	mov    -0x10(%rbp),%rax
    22f6:	5d                   	pop    %rbp
    22f7:	c3                   	retq   

00000000000022f8 <_ZNSt8__detail17_List_node_headerC1Ev>:
    22f8:	f3 0f 1e fa          	endbr64 
    22fc:	55                   	push   %rbp
    22fd:	48 89 e5             	mov    %rsp,%rbp
    2300:	48 83 ec 10          	sub    $0x10,%rsp
    2304:	48 89 7d f8          	mov    %rdi,-0x8(%rbp)
    2308:	48 8b 45 f8          	mov    -0x8(%rbp),%rax
    230c:	48 89 c7             	mov    %rax,%rdi
    230f:	e8 04 00 00 00       	callq  2318 <_ZNSt8__detail17_List_node_header7_M_initEv>
    2314:	90                   	nop
    2315:	c9                   	leaveq 
    2316:	c3                   	retq   
    2317:	90                   	nop

0000000000002318 <_ZNSt8__detail17_List_node_header7_M_initEv>:
    2318:	f3 0f 1e fa          	endbr64 
    231c:	55                   	push   %rbp
    231d:	48 89 e5             	mov    %rsp,%rbp
    2320:	48 89 7d f8          	mov    %rdi,-0x8(%rbp)
    2324:	48 8b 55 f8          	mov    -0x8(%rbp),%rdx
    2328:	48 8b 45 f8          	mov    -0x8(%rbp),%rax
    232c:	48 89 50 08          	mov    %rdx,0x8(%rax)
    2330:	48 8b 45 f8          	mov    -0x8(%rbp),%rax
    2334:	48 8b 50 08          	mov    0x8(%rax),%rdx
    2338:	48 8b 45 f8          	mov    -0x8(%rbp),%rax
    233c:	48 89 10             	mov    %rdx,(%rax)
    233f:	48 8b 45 f8          	mov    -0x8(%rbp),%rax
    2343:	48 c7 40 10 00 00 00 	movq   $0x0,0x10(%rax)
    234a:	00 
    234b:	90                   	nop
    234c:	5d                   	pop    %rbp
    234d:	c3                   	retq   

000000000000234e <_ZNSt7__cxx1110_List_baseIP6ThreadSaIS2_EE10_List_implD1Ev>:
    234e:	f3 0f 1e fa          	endbr64 
    2352:	55                   	push   %rbp
    2353:	48 89 e5             	mov    %rsp,%rbp
    2356:	48 83 ec 10          	sub    $0x10,%rsp
    235a:	48 89 7d f8          	mov    %rdi,-0x8(%rbp)
    235e:	48 8b 45 f8          	mov    -0x8(%rbp),%rax
    2362:	48 89 c7             	mov    %rax,%rdi
    2365:	e8 70 00 00 00       	callq  23da <_ZNSaISt10_List_nodeIP6ThreadEED1Ev>
    236a:	90                   	nop
    236b:	c9                   	leaveq 
    236c:	c3                   	retq   
    236d:	90                   	nop

000000000000236e <_ZNSt7__cxx1110_List_baseIP6ThreadSaIS2_EEC1Ev>:
    236e:	f3 0f 1e fa          	endbr64 
    2372:	55                   	push   %rbp
    2373:	48 89 e5             	mov    %rsp,%rbp
    2376:	48 83 ec 10          	sub    $0x10,%rsp
    237a:	48 89 7d f8          	mov    %rdi,-0x8(%rbp)
    237e:	48 8b 45 f8          	mov    -0x8(%rbp),%rax
    2382:	48 89 c7             	mov    %rax,%rdi
    2385:	e8 24 00 00 00       	callq  23ae <_ZNSt7__cxx1110_List_baseIP6ThreadSaIS2_EE10_List_implC1Ev>
    238a:	90                   	nop
    238b:	c9                   	leaveq 
    238c:	c3                   	retq   
    238d:	90                   	nop

000000000000238e <_ZNSt7__cxx114listIP6ThreadSaIS2_EEC1Ev>:
    238e:	f3 0f 1e fa          	endbr64 
    2392:	55                   	push   %rbp
    2393:	48 89 e5             	mov    %rsp,%rbp
    2396:	48 83 ec 10          	sub    $0x10,%rsp
    239a:	48 89 7d f8          	mov    %rdi,-0x8(%rbp)
    239e:	48 8b 45 f8          	mov    -0x8(%rbp),%rax
    23a2:	48 89 c7             	mov    %rax,%rdi
    23a5:	e8 c4 ff ff ff       	callq  236e <_ZNSt7__cxx1110_List_baseIP6ThreadSaIS2_EEC1Ev>
    23aa:	90                   	nop
    23ab:	c9                   	leaveq 
    23ac:	c3                   	retq   
    23ad:	90                   	nop

00000000000023ae <_ZNSt7__cxx1110_List_baseIP6ThreadSaIS2_EE10_List_implC1Ev>:
    23ae:	f3 0f 1e fa          	endbr64 
    23b2:	55                   	push   %rbp
    23b3:	48 89 e5             	mov    %rsp,%rbp
    23b6:	48 83 ec 10          	sub    $0x10,%rsp
    23ba:	48 89 7d f8          	mov    %rdi,-0x8(%rbp)
    23be:	48 8b 45 f8          	mov    -0x8(%rbp),%rax
    23c2:	48 89 c7             	mov    %rax,%rdi
    23c5:	e8 96 00 00 00       	callq  2460 <_ZNSaISt10_List_nodeIP6ThreadEEC1Ev>
    23ca:	48 8b 45 f8          	mov    -0x8(%rbp),%rax
    23ce:	48 89 c7             	mov    %rax,%rdi
    23d1:	e8 22 ff ff ff       	callq  22f8 <_ZNSt8__detail17_List_node_headerC1Ev>
    23d6:	90                   	nop
    23d7:	c9                   	leaveq 
    23d8:	c3                   	retq   
    23d9:	90                   	nop

00000000000023da <_ZNSaISt10_List_nodeIP6ThreadEED1Ev>:
    23da:	f3 0f 1e fa          	endbr64 
    23de:	55                   	push   %rbp
    23df:	48 89 e5             	mov    %rsp,%rbp
    23e2:	48 83 ec 10          	sub    $0x10,%rsp
    23e6:	48 89 7d f8          	mov    %rdi,-0x8(%rbp)
    23ea:	48 8b 45 f8          	mov    -0x8(%rbp),%rax
    23ee:	48 89 c7             	mov    %rax,%rdi
    23f1:	e8 8a 00 00 00       	callq  2480 <_ZN9__gnu_cxx13new_allocatorISt10_List_nodeIP6ThreadEED1Ev>
    23f6:	90                   	nop
    23f7:	c9                   	leaveq 
    23f8:	c3                   	retq   
    23f9:	90                   	nop

00000000000023fa <_ZNSt7__cxx1110_List_baseIP6ThreadSaIS2_EED1Ev>:
    23fa:	f3 0f 1e fa          	endbr64 
    23fe:	55                   	push   %rbp
    23ff:	48 89 e5             	mov    %rsp,%rbp
    2402:	48 83 ec 10          	sub    $0x10,%rsp
    2406:	48 89 7d f8          	mov    %rdi,-0x8(%rbp)
    240a:	48 8b 45 f8          	mov    -0x8(%rbp),%rax
    240e:	48 89 c7             	mov    %rax,%rdi
    2411:	e8 7a 00 00 00       	callq  2490 <_ZNSt7__cxx1110_List_baseIP6ThreadSaIS2_EE8_M_clearEv>
    2416:	48 8b 45 f8          	mov    -0x8(%rbp),%rax
    241a:	48 89 c7             	mov    %rax,%rdi
    241d:	e8 2c ff ff ff       	callq  234e <_ZNSt7__cxx1110_List_baseIP6ThreadSaIS2_EE10_List_implD1Ev>
    2422:	90                   	nop
    2423:	c9                   	leaveq 
    2424:	c3                   	retq   
    2425:	90                   	nop

0000000000002426 <_ZNSt7__cxx114listIP6ThreadSaIS2_EE9push_backERKS2_>:
    2426:	f3 0f 1e fa          	endbr64 
    242a:	55                   	push   %rbp
    242b:	48 89 e5             	mov    %rsp,%rbp
    242e:	48 83 ec 10          	sub    $0x10,%rsp
    2432:	48 89 7d f8          	mov    %rdi,-0x8(%rbp)
    2436:	48 89 75 f0          	mov    %rsi,-0x10(%rbp)
    243a:	48 8b 45 f8          	mov    -0x8(%rbp),%rax
    243e:	48 89 c7             	mov    %rax,%rdi
    2441:	e8 c8 00 00 00       	callq  250e <_ZNSt7__cxx114listIP6ThreadSaIS2_EE3endEv>
    2446:	48 89 c1             	mov    %rax,%rcx
    2449:	48 8b 55 f0          	mov    -0x10(%rbp),%rdx
    244d:	48 8b 45 f8          	mov    -0x8(%rbp),%rax
    2451:	48 89 ce             	mov    %rcx,%rsi
    2454:	48 89 c7             	mov    %rax,%rdi
    2457:	e8 fe 00 00 00       	callq  255a <_ZNSt7__cxx114listIP6ThreadSaIS2_EE9_M_insertIJRKS2_EEEvSt14_List_iteratorIS2_EDpOT_>
    245c:	90                   	nop
    245d:	c9                   	leaveq 
    245e:	c3                   	retq   
    245f:	90                   	nop

0000000000002460 <_ZNSaISt10_List_nodeIP6ThreadEEC1Ev>:
    2460:	f3 0f 1e fa          	endbr64 
    2464:	55                   	push   %rbp
    2465:	48 89 e5             	mov    %rsp,%rbp
    2468:	48 83 ec 10          	sub    $0x10,%rsp
    246c:	48 89 7d f8          	mov    %rdi,-0x8(%rbp)
    2470:	48 8b 45 f8          	mov    -0x8(%rbp),%rax
    2474:	48 89 c7             	mov    %rax,%rdi
    2477:	e8 40 01 00 00       	callq  25bc <_ZN9__gnu_cxx13new_allocatorISt10_List_nodeIP6ThreadEEC1Ev>
    247c:	90                   	nop
    247d:	c9                   	leaveq 
    247e:	c3                   	retq   
    247f:	90                   	nop

0000000000002480 <_ZN9__gnu_cxx13new_allocatorISt10_List_nodeIP6ThreadEED1Ev>:
    2480:	f3 0f 1e fa          	endbr64 
    2484:	55                   	push   %rbp
    2485:	48 89 e5             	mov    %rsp,%rbp
    2488:	48 89 7d f8          	mov    %rdi,-0x8(%rbp)
    248c:	90                   	nop
    248d:	5d                   	pop    %rbp
    248e:	c3                   	retq   
    248f:	90                   	nop

0000000000002490 <_ZNSt7__cxx1110_List_baseIP6ThreadSaIS2_EE8_M_clearEv>:
    2490:	f3 0f 1e fa          	endbr64 
    2494:	55                   	push   %rbp
    2495:	48 89 e5             	mov    %rsp,%rbp
    2498:	48 83 ec 30          	sub    $0x30,%rsp
    249c:	48 89 7d d8          	mov    %rdi,-0x28(%rbp)
    24a0:	48 8b 45 d8          	mov    -0x28(%rbp),%rax
    24a4:	48 8b 00             	mov    (%rax),%rax
    24a7:	48 89 45 e8          	mov    %rax,-0x18(%rbp)
    24ab:	48 8b 45 d8          	mov    -0x28(%rbp),%rax
    24af:	48 39 45 e8          	cmp    %rax,-0x18(%rbp)
    24b3:	74 56                	je     250b <_ZNSt7__cxx1110_List_baseIP6ThreadSaIS2_EE8_M_clearEv+0x7b>
    24b5:	48 8b 45 e8          	mov    -0x18(%rbp),%rax
    24b9:	48 89 45 f0          	mov    %rax,-0x10(%rbp)
    24bd:	48 8b 45 f0          	mov    -0x10(%rbp),%rax
    24c1:	48 8b 00             	mov    (%rax),%rax
    24c4:	48 89 45 e8          	mov    %rax,-0x18(%rbp)
    24c8:	48 8b 45 f0          	mov    -0x10(%rbp),%rax
    24cc:	48 89 c7             	mov    %rax,%rdi
    24cf:	e8 f8 00 00 00       	callq  25cc <_ZNSt10_List_nodeIP6ThreadE9_M_valptrEv>
    24d4:	48 89 45 f8          	mov    %rax,-0x8(%rbp)
    24d8:	48 8b 45 d8          	mov    -0x28(%rbp),%rax
    24dc:	48 89 c7             	mov    %rax,%rdi
    24df:	e8 0a 01 00 00       	callq  25ee <_ZNSt7__cxx1110_List_baseIP6ThreadSaIS2_EE21_M_get_Node_allocatorEv>
    24e4:	48 89 c2             	mov    %rax,%rdx
    24e7:	48 8b 45 f8          	mov    -0x8(%rbp),%rax
    24eb:	48 89 c6             	mov    %rax,%rsi
    24ee:	48 89 d7             	mov    %rdx,%rdi
    24f1:	e8 0a 01 00 00       	callq  2600 <_ZNSt16allocator_traitsISaISt10_List_nodeIP6ThreadEEE7destroyIS2_EEvRS4_PT_>
    24f6:	48 8b 55 f0          	mov    -0x10(%rbp),%rdx
    24fa:	48 8b 45 d8          	mov    -0x28(%rbp),%rax
    24fe:	48 89 d6             	mov    %rdx,%rsi
    2501:	48 89 c7             	mov    %rax,%rdi
    2504:	e8 21 01 00 00       	callq  262a <_ZNSt7__cxx1110_List_baseIP6ThreadSaIS2_EE11_M_put_nodeEPSt10_List_nodeIS2_E>
    2509:	eb a0                	jmp    24ab <_ZNSt7__cxx1110_List_baseIP6ThreadSaIS2_EE8_M_clearEv+0x1b>
    250b:	90                   	nop
    250c:	c9                   	leaveq 
    250d:	c3                   	retq   

000000000000250e <_ZNSt7__cxx114listIP6ThreadSaIS2_EE3endEv>:
    250e:	f3 0f 1e fa          	endbr64 
    2512:	55                   	push   %rbp
    2513:	48 89 e5             	mov    %rsp,%rbp
    2516:	48 83 ec 20          	sub    $0x20,%rsp
    251a:	48 89 7d e8          	mov    %rdi,-0x18(%rbp)
    251e:	64 48 8b 04 25 28 00 	mov    %fs:0x28,%rax
    2525:	00 00 
    2527:	48 89 45 f8          	mov    %rax,-0x8(%rbp)
    252b:	31 c0                	xor    %eax,%eax
    252d:	48 8b 55 e8          	mov    -0x18(%rbp),%rdx
    2531:	48 8d 45 f0          	lea    -0x10(%rbp),%rax
    2535:	48 89 d6             	mov    %rdx,%rsi
    2538:	48 89 c7             	mov    %rax,%rdi
    253b:	e8 1a 01 00 00       	callq  265a <_ZNSt14_List_iteratorIP6ThreadEC1EPNSt8__detail15_List_node_baseE>
    2540:	48 8b 45 f0          	mov    -0x10(%rbp),%rax
    2544:	48 8b 4d f8          	mov    -0x8(%rbp),%rcx
    2548:	64 48 33 0c 25 28 00 	xor    %fs:0x28,%rcx
    254f:	00 00 
    2551:	74 05                	je     2558 <_ZNSt7__cxx114listIP6ThreadSaIS2_EE3endEv+0x4a>
    2553:	e8 58 ed ff ff       	callq  12b0 <__stack_chk_fail@plt>
    2558:	c9                   	leaveq 
    2559:	c3                   	retq   

000000000000255a <_ZNSt7__cxx114listIP6ThreadSaIS2_EE9_M_insertIJRKS2_EEEvSt14_List_iteratorIS2_EDpOT_>:
    255a:	f3 0f 1e fa          	endbr64 
    255e:	55                   	push   %rbp
    255f:	48 89 e5             	mov    %rsp,%rbp
    2562:	48 83 ec 30          	sub    $0x30,%rsp
    2566:	48 89 7d e8          	mov    %rdi,-0x18(%rbp)
    256a:	48 89 75 e0          	mov    %rsi,-0x20(%rbp)
    256e:	48 89 55 d8          	mov    %rdx,-0x28(%rbp)
    2572:	48 8b 45 d8          	mov    -0x28(%rbp),%rax
    2576:	48 89 c7             	mov    %rax,%rdi
    2579:	e8 fa 00 00 00       	callq  2678 <_ZSt7forwardIRKP6ThreadEOT_RNSt16remove_referenceIS4_E4typeE>
    257e:	48 89 c2             	mov    %rax,%rdx
    2581:	48 8b 45 e8          	mov    -0x18(%rbp),%rax
    2585:	48 89 d6             	mov    %rdx,%rsi
    2588:	48 89 c7             	mov    %rax,%rdi
    258b:	e8 fa 00 00 00       	callq  268a <_ZNSt7__cxx114listIP6ThreadSaIS2_EE14_M_create_nodeIJRKS2_EEEPSt10_List_nodeIS2_EDpOT_>
    2590:	48 89 45 f8          	mov    %rax,-0x8(%rbp)
    2594:	48 8b 45 f8          	mov    -0x8(%rbp),%rax
    2598:	48 8b 55 e0          	mov    -0x20(%rbp),%rdx
    259c:	48 89 d6             	mov    %rdx,%rsi
    259f:	48 89 c7             	mov    %rax,%rdi
    25a2:	e8 39 ec ff ff       	callq  11e0 <_ZNSt8__detail15_List_node_base7_M_hookEPS0_@plt>
    25a7:	48 8b 45 e8          	mov    -0x18(%rbp),%rax
    25ab:	be 01 00 00 00       	mov    $0x1,%esi
    25b0:	48 89 c7             	mov    %rax,%rdi
    25b3:	e8 9c 01 00 00       	callq  2754 <_ZNSt7__cxx1110_List_baseIP6ThreadSaIS2_EE11_M_inc_sizeEm>
    25b8:	90                   	nop
    25b9:	c9                   	leaveq 
    25ba:	c3                   	retq   
    25bb:	90                   	nop

00000000000025bc <_ZN9__gnu_cxx13new_allocatorISt10_List_nodeIP6ThreadEEC1Ev>:
    25bc:	f3 0f 1e fa          	endbr64 
    25c0:	55                   	push   %rbp
    25c1:	48 89 e5             	mov    %rsp,%rbp
    25c4:	48 89 7d f8          	mov    %rdi,-0x8(%rbp)
    25c8:	90                   	nop
    25c9:	5d                   	pop    %rbp
    25ca:	c3                   	retq   
    25cb:	90                   	nop

00000000000025cc <_ZNSt10_List_nodeIP6ThreadE9_M_valptrEv>:
    25cc:	f3 0f 1e fa          	endbr64 
    25d0:	55                   	push   %rbp
    25d1:	48 89 e5             	mov    %rsp,%rbp
    25d4:	48 83 ec 10          	sub    $0x10,%rsp
    25d8:	48 89 7d f8          	mov    %rdi,-0x8(%rbp)
    25dc:	48 8b 45 f8          	mov    -0x8(%rbp),%rax
    25e0:	48 83 c0 10          	add    $0x10,%rax
    25e4:	48 89 c7             	mov    %rax,%rdi
    25e7:	e8 92 01 00 00       	callq  277e <_ZN9__gnu_cxx16__aligned_membufIP6ThreadE6_M_ptrEv>
    25ec:	c9                   	leaveq 
    25ed:	c3                   	retq   

00000000000025ee <_ZNSt7__cxx1110_List_baseIP6ThreadSaIS2_EE21_M_get_Node_allocatorEv>:
    25ee:	f3 0f 1e fa          	endbr64 
    25f2:	55                   	push   %rbp
    25f3:	48 89 e5             	mov    %rsp,%rbp
    25f6:	48 89 7d f8          	mov    %rdi,-0x8(%rbp)
    25fa:	48 8b 45 f8          	mov    -0x8(%rbp),%rax
    25fe:	5d                   	pop    %rbp
    25ff:	c3                   	retq   

0000000000002600 <_ZNSt16allocator_traitsISaISt10_List_nodeIP6ThreadEEE7destroyIS2_EEvRS4_PT_>:
    2600:	f3 0f 1e fa          	endbr64 
    2604:	55                   	push   %rbp
    2605:	48 89 e5             	mov    %rsp,%rbp
    2608:	48 83 ec 10          	sub    $0x10,%rsp
    260c:	48 89 7d f8          	mov    %rdi,-0x8(%rbp)
    2610:	48 89 75 f0          	mov    %rsi,-0x10(%rbp)
    2614:	48 8b 55 f0          	mov    -0x10(%rbp),%rdx
    2618:	48 8b 45 f8          	mov    -0x8(%rbp),%rax
    261c:	48 89 d6             	mov    %rdx,%rsi
    261f:	48 89 c7             	mov    %rax,%rdi
    2622:	e8 75 01 00 00       	callq  279c <_ZN9__gnu_cxx13new_allocatorISt10_List_nodeIP6ThreadEE7destroyIS3_EEvPT_>
    2627:	90                   	nop
    2628:	c9                   	leaveq 
    2629:	c3                   	retq   

000000000000262a <_ZNSt7__cxx1110_List_baseIP6ThreadSaIS2_EE11_M_put_nodeEPSt10_List_nodeIS2_E>:
    262a:	f3 0f 1e fa          	endbr64 
    262e:	55                   	push   %rbp
    262f:	48 89 e5             	mov    %rsp,%rbp
    2632:	48 83 ec 10          	sub    $0x10,%rsp
    2636:	48 89 7d f8          	mov    %rdi,-0x8(%rbp)
    263a:	48 89 75 f0          	mov    %rsi,-0x10(%rbp)
    263e:	48 8b 45 f8          	mov    -0x8(%rbp),%rax
    2642:	48 8b 4d f0          	mov    -0x10(%rbp),%rcx
    2646:	ba 01 00 00 00       	mov    $0x1,%edx
    264b:	48 89 ce             	mov    %rcx,%rsi
    264e:	48 89 c7             	mov    %rax,%rdi
    2651:	e8 59 01 00 00       	callq  27af <_ZNSt16allocator_traitsISaISt10_List_nodeIP6ThreadEEE10deallocateERS4_PS3_m>
    2656:	90                   	nop
    2657:	c9                   	leaveq 
    2658:	c3                   	retq   
    2659:	90                   	nop

000000000000265a <_ZNSt14_List_iteratorIP6ThreadEC1EPNSt8__detail15_List_node_baseE>:
    265a:	f3 0f 1e fa          	endbr64 
    265e:	55                   	push   %rbp
    265f:	48 89 e5             	mov    %rsp,%rbp
    2662:	48 89 7d f8          	mov    %rdi,-0x8(%rbp)
    2666:	48 89 75 f0          	mov    %rsi,-0x10(%rbp)
    266a:	48 8b 45 f8          	mov    -0x8(%rbp),%rax
    266e:	48 8b 55 f0          	mov    -0x10(%rbp),%rdx
    2672:	48 89 10             	mov    %rdx,(%rax)
    2675:	90                   	nop
    2676:	5d                   	pop    %rbp
    2677:	c3                   	retq   

0000000000002678 <_ZSt7forwardIRKP6ThreadEOT_RNSt16remove_referenceIS4_E4typeE>:
    2678:	f3 0f 1e fa          	endbr64 
    267c:	55                   	push   %rbp
    267d:	48 89 e5             	mov    %rsp,%rbp
    2680:	48 89 7d f8          	mov    %rdi,-0x8(%rbp)
    2684:	48 8b 45 f8          	mov    -0x8(%rbp),%rax
    2688:	5d                   	pop    %rbp
    2689:	c3                   	retq   

000000000000268a <_ZNSt7__cxx114listIP6ThreadSaIS2_EE14_M_create_nodeIJRKS2_EEEPSt10_List_nodeIS2_EDpOT_>:
    268a:	f3 0f 1e fa          	endbr64 
    268e:	55                   	push   %rbp
    268f:	48 89 e5             	mov    %rsp,%rbp
    2692:	53                   	push   %rbx
    2693:	48 83 ec 48          	sub    $0x48,%rsp
    2697:	48 89 7d b8          	mov    %rdi,-0x48(%rbp)
    269b:	48 89 75 b0          	mov    %rsi,-0x50(%rbp)
    269f:	64 48 8b 04 25 28 00 	mov    %fs:0x28,%rax
    26a6:	00 00 
    26a8:	48 89 45 e8          	mov    %rax,-0x18(%rbp)
    26ac:	31 c0                	xor    %eax,%eax
    26ae:	48 8b 45 b8          	mov    -0x48(%rbp),%rax
    26b2:	48 89 c7             	mov    %rax,%rdi
    26b5:	e8 28 01 00 00       	callq  27e2 <_ZNSt7__cxx1110_List_baseIP6ThreadSaIS2_EE11_M_get_nodeEv>
    26ba:	48 89 45 c0          	mov    %rax,-0x40(%rbp)
    26be:	48 8b 45 b8          	mov    -0x48(%rbp),%rax
    26c2:	48 89 c7             	mov    %rax,%rdi
    26c5:	e8 24 ff ff ff       	callq  25ee <_ZNSt7__cxx1110_List_baseIP6ThreadSaIS2_EE21_M_get_Node_allocatorEv>
    26ca:	48 89 45 c8          	mov    %rax,-0x38(%rbp)
    26ce:	48 8b 55 c0          	mov    -0x40(%rbp),%rdx
    26d2:	48 8b 4d c8          	mov    -0x38(%rbp),%rcx
    26d6:	48 8d 45 d0          	lea    -0x30(%rbp),%rax
    26da:	48 89 ce             	mov    %rcx,%rsi
    26dd:	48 89 c7             	mov    %rax,%rdi
    26e0:	e8 21 01 00 00       	callq  2806 <_ZNSt15__allocated_ptrISaISt10_List_nodeIP6ThreadEEEC1ERS4_PS3_>
    26e5:	48 8b 45 b0          	mov    -0x50(%rbp),%rax
    26e9:	48 89 c7             	mov    %rax,%rdi
    26ec:	e8 87 ff ff ff       	callq  2678 <_ZSt7forwardIRKP6ThreadEOT_RNSt16remove_referenceIS4_E4typeE>
    26f1:	48 89 c3             	mov    %rax,%rbx
    26f4:	48 8b 45 c0          	mov    -0x40(%rbp),%rax
    26f8:	48 89 c7             	mov    %rax,%rdi
    26fb:	e8 cc fe ff ff       	callq  25cc <_ZNSt10_List_nodeIP6ThreadE9_M_valptrEv>
    2700:	48 89 c1             	mov    %rax,%rcx
    2703:	48 8b 45 c8          	mov    -0x38(%rbp),%rax
    2707:	48 89 da             	mov    %rbx,%rdx
    270a:	48 89 ce             	mov    %rcx,%rsi
    270d:	48 89 c7             	mov    %rax,%rdi
    2710:	e8 6a 01 00 00       	callq  287f <_ZNSt16allocator_traitsISaISt10_List_nodeIP6ThreadEEE9constructIS2_JRKS2_EEEvRS4_PT_DpOT0_>
    2715:	48 8d 45 d0          	lea    -0x30(%rbp),%rax
    2719:	be 00 00 00 00       	mov    $0x0,%esi
    271e:	48 89 c7             	mov    %rax,%rdi
    2721:	e8 96 01 00 00       	callq  28bc <_ZNSt15__allocated_ptrISaISt10_List_nodeIP6ThreadEEEaSEDn>
    2726:	48 8b 5d c0          	mov    -0x40(%rbp),%rbx
    272a:	48 8d 45 d0          	lea    -0x30(%rbp),%rax
    272e:	48 89 c7             	mov    %rax,%rdi
    2731:	e8 0a 01 00 00       	callq  2840 <_ZNSt15__allocated_ptrISaISt10_List_nodeIP6ThreadEEED1Ev>
    2736:	48 89 d8             	mov    %rbx,%rax
    2739:	48 8b 55 e8          	mov    -0x18(%rbp),%rdx
    273d:	64 48 33 14 25 28 00 	xor    %fs:0x28,%rdx
    2744:	00 00 
    2746:	74 05                	je     274d <_ZNSt7__cxx114listIP6ThreadSaIS2_EE14_M_create_nodeIJRKS2_EEEPSt10_List_nodeIS2_EDpOT_+0xc3>
    2748:	e8 63 eb ff ff       	callq  12b0 <__stack_chk_fail@plt>
    274d:	48 83 c4 48          	add    $0x48,%rsp
    2751:	5b                   	pop    %rbx
    2752:	5d                   	pop    %rbp
    2753:	c3                   	retq   

0000000000002754 <_ZNSt7__cxx1110_List_baseIP6ThreadSaIS2_EE11_M_inc_sizeEm>:
    2754:	f3 0f 1e fa          	endbr64 
    2758:	55                   	push   %rbp
    2759:	48 89 e5             	mov    %rsp,%rbp
    275c:	48 89 7d f8          	mov    %rdi,-0x8(%rbp)
    2760:	48 89 75 f0          	mov    %rsi,-0x10(%rbp)
    2764:	48 8b 45 f8          	mov    -0x8(%rbp),%rax
    2768:	48 8b 50 10          	mov    0x10(%rax),%rdx
    276c:	48 8b 45 f0          	mov    -0x10(%rbp),%rax
    2770:	48 01 c2             	add    %rax,%rdx
    2773:	48 8b 45 f8          	mov    -0x8(%rbp),%rax
    2777:	48 89 50 10          	mov    %rdx,0x10(%rax)
    277b:	90                   	nop
    277c:	5d                   	pop    %rbp
    277d:	c3                   	retq   

000000000000277e <_ZN9__gnu_cxx16__aligned_membufIP6ThreadE6_M_ptrEv>:
    277e:	f3 0f 1e fa          	endbr64 
    2782:	55                   	push   %rbp
    2783:	48 89 e5             	mov    %rsp,%rbp
    2786:	48 83 ec 10          	sub    $0x10,%rsp
    278a:	48 89 7d f8          	mov    %rdi,-0x8(%rbp)
    278e:	48 8b 45 f8          	mov    -0x8(%rbp),%rax
    2792:	48 89 c7             	mov    %rax,%rdi
    2795:	e8 44 01 00 00       	callq  28de <_ZN9__gnu_cxx16__aligned_membufIP6ThreadE7_M_addrEv>
    279a:	c9                   	leaveq 
    279b:	c3                   	retq   

000000000000279c <_ZN9__gnu_cxx13new_allocatorISt10_List_nodeIP6ThreadEE7destroyIS3_EEvPT_>:
    279c:	f3 0f 1e fa          	endbr64 
    27a0:	55                   	push   %rbp
    27a1:	48 89 e5             	mov    %rsp,%rbp
    27a4:	48 89 7d f8          	mov    %rdi,-0x8(%rbp)
    27a8:	48 89 75 f0          	mov    %rsi,-0x10(%rbp)
    27ac:	90                   	nop
    27ad:	5d                   	pop    %rbp
    27ae:	c3                   	retq   

00000000000027af <_ZNSt16allocator_traitsISaISt10_List_nodeIP6ThreadEEE10deallocateERS4_PS3_m>:
    27af:	f3 0f 1e fa          	endbr64 
    27b3:	55                   	push   %rbp
    27b4:	48 89 e5             	mov    %rsp,%rbp
    27b7:	48 83 ec 20          	sub    $0x20,%rsp
    27bb:	48 89 7d f8          	mov    %rdi,-0x8(%rbp)
    27bf:	48 89 75 f0          	mov    %rsi,-0x10(%rbp)
    27c3:	48 89 55 e8          	mov    %rdx,-0x18(%rbp)
    27c7:	48 8b 55 e8          	mov    -0x18(%rbp),%rdx
    27cb:	48 8b 4d f0          	mov    -0x10(%rbp),%rcx
    27cf:	48 8b 45 f8          	mov    -0x8(%rbp),%rax
    27d3:	48 89 ce             	mov    %rcx,%rsi
    27d6:	48 89 c7             	mov    %rax,%rdi
    27d9:	e8 12 01 00 00       	callq  28f0 <_ZN9__gnu_cxx13new_allocatorISt10_List_nodeIP6ThreadEE10deallocateEPS4_m>
    27de:	90                   	nop
    27df:	c9                   	leaveq 
    27e0:	c3                   	retq   
    27e1:	90                   	nop

00000000000027e2 <_ZNSt7__cxx1110_List_baseIP6ThreadSaIS2_EE11_M_get_nodeEv>:
    27e2:	f3 0f 1e fa          	endbr64 
    27e6:	55                   	push   %rbp
    27e7:	48 89 e5             	mov    %rsp,%rbp
    27ea:	48 83 ec 10          	sub    $0x10,%rsp
    27ee:	48 89 7d f8          	mov    %rdi,-0x8(%rbp)
    27f2:	48 8b 45 f8          	mov    -0x8(%rbp),%rax
    27f6:	be 01 00 00 00       	mov    $0x1,%esi
    27fb:	48 89 c7             	mov    %rax,%rdi
    27fe:	e8 14 01 00 00       	callq  2917 <_ZNSt16allocator_traitsISaISt10_List_nodeIP6ThreadEEE8allocateERS4_m>
    2803:	c9                   	leaveq 
    2804:	c3                   	retq   
    2805:	90                   	nop

0000000000002806 <_ZNSt15__allocated_ptrISaISt10_List_nodeIP6ThreadEEEC1ERS4_PS3_>:
    2806:	f3 0f 1e fa          	endbr64 
    280a:	55                   	push   %rbp
    280b:	48 89 e5             	mov    %rsp,%rbp
    280e:	48 83 ec 20          	sub    $0x20,%rsp
    2812:	48 89 7d f8          	mov    %rdi,-0x8(%rbp)
    2816:	48 89 75 f0          	mov    %rsi,-0x10(%rbp)
    281a:	48 89 55 e8          	mov    %rdx,-0x18(%rbp)
    281e:	48 8b 45 f0          	mov    -0x10(%rbp),%rax
    2822:	48 89 c7             	mov    %rax,%rdi
    2825:	e8 1b 01 00 00       	callq  2945 <_ZSt11__addressofISaISt10_List_nodeIP6ThreadEEEPT_RS5_>
    282a:	48 8b 55 f8          	mov    -0x8(%rbp),%rdx
    282e:	48 89 02             	mov    %rax,(%rdx)
    2831:	48 8b 45 f8          	mov    -0x8(%rbp),%rax
    2835:	48 8b 55 e8          	mov    -0x18(%rbp),%rdx
    2839:	48 89 50 08          	mov    %rdx,0x8(%rax)
    283d:	90                   	nop
    283e:	c9                   	leaveq 
    283f:	c3                   	retq   

0000000000002840 <_ZNSt15__allocated_ptrISaISt10_List_nodeIP6ThreadEEED1Ev>:
    2840:	f3 0f 1e fa          	endbr64 
    2844:	55                   	push   %rbp
    2845:	48 89 e5             	mov    %rsp,%rbp
    2848:	48 83 ec 10          	sub    $0x10,%rsp
    284c:	48 89 7d f8          	mov    %rdi,-0x8(%rbp)
    2850:	48 8b 45 f8          	mov    -0x8(%rbp),%rax
    2854:	48 8b 40 08          	mov    0x8(%rax),%rax
    2858:	48 85 c0             	test   %rax,%rax
    285b:	74 1f                	je     287c <_ZNSt15__allocated_ptrISaISt10_List_nodeIP6ThreadEEED1Ev+0x3c>
    285d:	48 8b 45 f8          	mov    -0x8(%rbp),%rax
    2861:	48 8b 48 08          	mov    0x8(%rax),%rcx
    2865:	48 8b 45 f8          	mov    -0x8(%rbp),%rax
    2869:	48 8b 00             	mov    (%rax),%rax
    286c:	ba 01 00 00 00       	mov    $0x1,%edx
    2871:	48 89 ce             	mov    %rcx,%rsi
    2874:	48 89 c7             	mov    %rax,%rdi
    2877:	e8 33 ff ff ff       	callq  27af <_ZNSt16allocator_traitsISaISt10_List_nodeIP6ThreadEEE10deallocateERS4_PS3_m>
    287c:	90                   	nop
    287d:	c9                   	leaveq 
    287e:	c3                   	retq   

000000000000287f <_ZNSt16allocator_traitsISaISt10_List_nodeIP6ThreadEEE9constructIS2_JRKS2_EEEvRS4_PT_DpOT0_>:
    287f:	f3 0f 1e fa          	endbr64 
    2883:	55                   	push   %rbp
    2884:	48 89 e5             	mov    %rsp,%rbp
    2887:	48 83 ec 20          	sub    $0x20,%rsp
    288b:	48 89 7d f8          	mov    %rdi,-0x8(%rbp)
    288f:	48 89 75 f0          	mov    %rsi,-0x10(%rbp)
    2893:	48 89 55 e8          	mov    %rdx,-0x18(%rbp)
    2897:	48 8b 45 e8          	mov    -0x18(%rbp),%rax
    289b:	48 89 c7             	mov    %rax,%rdi
    289e:	e8 d5 fd ff ff       	callq  2678 <_ZSt7forwardIRKP6ThreadEOT_RNSt16remove_referenceIS4_E4typeE>
    28a3:	48 89 c2             	mov    %rax,%rdx
    28a6:	48 8b 4d f0          	mov    -0x10(%rbp),%rcx
    28aa:	48 8b 45 f8          	mov    -0x8(%rbp),%rax
    28ae:	48 89 ce             	mov    %rcx,%rsi
    28b1:	48 89 c7             	mov    %rax,%rdi
    28b4:	e8 9f 00 00 00       	callq  2958 <_ZN9__gnu_cxx13new_allocatorISt10_List_nodeIP6ThreadEE9constructIS3_JRKS3_EEEvPT_DpOT0_>
    28b9:	90                   	nop
    28ba:	c9                   	leaveq 
    28bb:	c3                   	retq   

00000000000028bc <_ZNSt15__allocated_ptrISaISt10_List_nodeIP6ThreadEEEaSEDn>:
    28bc:	f3 0f 1e fa          	endbr64 
    28c0:	55                   	push   %rbp
    28c1:	48 89 e5             	mov    %rsp,%rbp
    28c4:	48 89 7d f8          	mov    %rdi,-0x8(%rbp)
    28c8:	48 89 75 f0          	mov    %rsi,-0x10(%rbp)
    28cc:	48 8b 45 f8          	mov    -0x8(%rbp),%rax
    28d0:	48 c7 40 08 00 00 00 	movq   $0x0,0x8(%rax)
    28d7:	00 
    28d8:	48 8b 45 f8          	mov    -0x8(%rbp),%rax
    28dc:	5d                   	pop    %rbp
    28dd:	c3                   	retq   

00000000000028de <_ZN9__gnu_cxx16__aligned_membufIP6ThreadE7_M_addrEv>:
    28de:	f3 0f 1e fa          	endbr64 
    28e2:	55                   	push   %rbp
    28e3:	48 89 e5             	mov    %rsp,%rbp
    28e6:	48 89 7d f8          	mov    %rdi,-0x8(%rbp)
    28ea:	48 8b 45 f8          	mov    -0x8(%rbp),%rax
    28ee:	5d                   	pop    %rbp
    28ef:	c3                   	retq   

00000000000028f0 <_ZN9__gnu_cxx13new_allocatorISt10_List_nodeIP6ThreadEE10deallocateEPS4_m>:
    28f0:	f3 0f 1e fa          	endbr64 
    28f4:	55                   	push   %rbp
    28f5:	48 89 e5             	mov    %rsp,%rbp
    28f8:	48 83 ec 20          	sub    $0x20,%rsp
    28fc:	48 89 7d f8          	mov    %rdi,-0x8(%rbp)
    2900:	48 89 75 f0          	mov    %rsi,-0x10(%rbp)
    2904:	48 89 55 e8          	mov    %rdx,-0x18(%rbp)
    2908:	48 8b 45 f0          	mov    -0x10(%rbp),%rax
    290c:	48 89 c7             	mov    %rax,%rdi
    290f:	e8 5c e9 ff ff       	callq  1270 <_ZdlPv@plt>
    2914:	90                   	nop
    2915:	c9                   	leaveq 
    2916:	c3                   	retq   

0000000000002917 <_ZNSt16allocator_traitsISaISt10_List_nodeIP6ThreadEEE8allocateERS4_m>:
    2917:	f3 0f 1e fa          	endbr64 
    291b:	55                   	push   %rbp
    291c:	48 89 e5             	mov    %rsp,%rbp
    291f:	48 83 ec 10          	sub    $0x10,%rsp
    2923:	48 89 7d f8          	mov    %rdi,-0x8(%rbp)
    2927:	48 89 75 f0          	mov    %rsi,-0x10(%rbp)
    292b:	48 8b 4d f0          	mov    -0x10(%rbp),%rcx
    292f:	48 8b 45 f8          	mov    -0x8(%rbp),%rax
    2933:	ba 00 00 00 00       	mov    $0x0,%edx
    2938:	48 89 ce             	mov    %rcx,%rsi
    293b:	48 89 c7             	mov    %rax,%rdi
    293e:	e8 59 00 00 00       	callq  299c <_ZN9__gnu_cxx13new_allocatorISt10_List_nodeIP6ThreadEE8allocateEmPKv>
    2943:	c9                   	leaveq 
    2944:	c3                   	retq   

0000000000002945 <_ZSt11__addressofISaISt10_List_nodeIP6ThreadEEEPT_RS5_>:
    2945:	f3 0f 1e fa          	endbr64 
    2949:	55                   	push   %rbp
    294a:	48 89 e5             	mov    %rsp,%rbp
    294d:	48 89 7d f8          	mov    %rdi,-0x8(%rbp)
    2951:	48 8b 45 f8          	mov    -0x8(%rbp),%rax
    2955:	5d                   	pop    %rbp
    2956:	c3                   	retq   
    2957:	90                   	nop

0000000000002958 <_ZN9__gnu_cxx13new_allocatorISt10_List_nodeIP6ThreadEE9constructIS3_JRKS3_EEEvPT_DpOT0_>:
    2958:	f3 0f 1e fa          	endbr64 
    295c:	55                   	push   %rbp
    295d:	48 89 e5             	mov    %rsp,%rbp
    2960:	53                   	push   %rbx
    2961:	48 83 ec 28          	sub    $0x28,%rsp
    2965:	48 89 7d e8          	mov    %rdi,-0x18(%rbp)
    2969:	48 89 75 e0          	mov    %rsi,-0x20(%rbp)
    296d:	48 89 55 d8          	mov    %rdx,-0x28(%rbp)
    2971:	48 8b 45 d8          	mov    -0x28(%rbp),%rax
    2975:	48 89 c7             	mov    %rax,%rdi
    2978:	e8 fb fc ff ff       	callq  2678 <_ZSt7forwardIRKP6ThreadEOT_RNSt16remove_referenceIS4_E4typeE>
    297d:	48 8b 18             	mov    (%rax),%rbx
    2980:	48 8b 45 e0          	mov    -0x20(%rbp),%rax
    2984:	48 89 c6             	mov    %rax,%rsi
    2987:	bf 08 00 00 00       	mov    $0x8,%edi
    298c:	e8 51 f9 ff ff       	callq  22e2 <_ZnwmPv>
    2991:	48 89 18             	mov    %rbx,(%rax)
    2994:	90                   	nop
    2995:	48 83 c4 28          	add    $0x28,%rsp
    2999:	5b                   	pop    %rbx
    299a:	5d                   	pop    %rbp
    299b:	c3                   	retq   

000000000000299c <_ZN9__gnu_cxx13new_allocatorISt10_List_nodeIP6ThreadEE8allocateEmPKv>:
    299c:	f3 0f 1e fa          	endbr64 
    29a0:	55                   	push   %rbp
    29a1:	48 89 e5             	mov    %rsp,%rbp
    29a4:	48 83 ec 20          	sub    $0x20,%rsp
    29a8:	48 89 7d f8          	mov    %rdi,-0x8(%rbp)
    29ac:	48 89 75 f0          	mov    %rsi,-0x10(%rbp)
    29b0:	48 89 55 e8          	mov    %rdx,-0x18(%rbp)
    29b4:	48 8b 45 f8          	mov    -0x8(%rbp),%rax
    29b8:	48 89 c7             	mov    %rax,%rdi
    29bb:	e8 2c 00 00 00       	callq  29ec <_ZNK9__gnu_cxx13new_allocatorISt10_List_nodeIP6ThreadEE8max_sizeEv>
    29c0:	48 39 45 f0          	cmp    %rax,-0x10(%rbp)
    29c4:	0f 97 c0             	seta   %al
    29c7:	84 c0                	test   %al,%al
    29c9:	74 05                	je     29d0 <_ZN9__gnu_cxx13new_allocatorISt10_List_nodeIP6ThreadEE8allocateEmPKv+0x34>
    29cb:	e8 20 e8 ff ff       	callq  11f0 <_ZSt17__throw_bad_allocv@plt>
    29d0:	48 8b 55 f0          	mov    -0x10(%rbp),%rdx
    29d4:	48 89 d0             	mov    %rdx,%rax
    29d7:	48 01 c0             	add    %rax,%rax
    29da:	48 01 d0             	add    %rdx,%rax
    29dd:	48 c1 e0 03          	shl    $0x3,%rax
    29e1:	48 89 c7             	mov    %rax,%rdi
    29e4:	e8 a7 e8 ff ff       	callq  1290 <_Znwm@plt>
    29e9:	c9                   	leaveq 
    29ea:	c3                   	retq   
    29eb:	90                   	nop

00000000000029ec <_ZNK9__gnu_cxx13new_allocatorISt10_List_nodeIP6ThreadEE8max_sizeEv>:
    29ec:	f3 0f 1e fa          	endbr64 
    29f0:	55                   	push   %rbp
    29f1:	48 89 e5             	mov    %rsp,%rbp
    29f4:	48 89 7d f8          	mov    %rdi,-0x8(%rbp)
    29f8:	48 b8 55 55 55 55 55 	movabs $0x555555555555555,%rax
    29ff:	55 55 05 
    2a02:	5d                   	pop    %rbp
    2a03:	c3                   	retq   

0000000000002a04 <_ZNSt7__cxx114listIP6ThreadSaIS2_EED1Ev>:
    2a04:	f3 0f 1e fa          	endbr64 
    2a08:	55                   	push   %rbp
    2a09:	48 89 e5             	mov    %rsp,%rbp
    2a0c:	48 83 ec 10          	sub    $0x10,%rsp
    2a10:	48 89 7d f8          	mov    %rdi,-0x8(%rbp)
    2a14:	48 8b 45 f8          	mov    -0x8(%rbp),%rax
    2a18:	48 89 c7             	mov    %rax,%rdi
    2a1b:	e8 da f9 ff ff       	callq  23fa <_ZNSt7__cxx1110_List_baseIP6ThreadSaIS2_EED1Ev>
    2a20:	90                   	nop
    2a21:	c9                   	leaveq 
    2a22:	c3                   	retq   

0000000000002a23 <_Z11thread_funcv>:
    2a23:	f3 0f 1e fa          	endbr64 
    2a27:	55                   	push   %rbp
    2a28:	48 89 e5             	mov    %rsp,%rbp
    2a2b:	48 8d 35 dc 07 00 00 	lea    0x7dc(%rip),%rsi        # 320e <_ZStL6ignore+0x1>
    2a32:	48 8d 3d 07 36 00 00 	lea    0x3607(%rip),%rdi        # 6040 <_ZSt4cout@@GLIBCXX_3.4>
    2a39:	e8 42 e8 ff ff       	callq  1280 <_ZStlsISt11char_traitsIcEERSt13basic_ostreamIcT_ES5_PKc@plt>
    2a3e:	e8 cf f7 ff ff       	callq  2212 <_ZN8DThreads5YieldEv>
    2a43:	90                   	nop
    2a44:	5d                   	pop    %rbp
    2a45:	c3                   	retq   

0000000000002a46 <main>:
    2a46:	f3 0f 1e fa          	endbr64 
    2a4a:	55                   	push   %rbp
    2a4b:	48 89 e5             	mov    %rsp,%rbp
    2a4e:	48 83 ec 10          	sub    $0x10,%rsp
    2a52:	89 7d fc             	mov    %edi,-0x4(%rbp)
    2a55:	48 89 75 f0          	mov    %rsi,-0x10(%rbp)
    2a59:	48 8d 35 c2 07 00 00 	lea    0x7c2(%rip),%rsi        # 3222 <_ZStL6ignore+0x15>
    2a60:	48 8d 3d d9 35 00 00 	lea    0x35d9(%rip),%rdi        # 6040 <_ZSt4cout@@GLIBCXX_3.4>
    2a67:	e8 14 e8 ff ff       	callq  1280 <_ZStlsISt11char_traitsIcEERSt13basic_ostreamIcT_ES5_PKc@plt>
    2a6c:	e8 f5 f5 ff ff       	callq  2066 <_ZN8DThreads4InitEv>
    2a71:	e8 9c f7 ff ff       	callq  2212 <_ZN8DThreads5YieldEv>
    2a76:	48 8d 35 c0 07 00 00 	lea    0x7c0(%rip),%rsi        # 323d <_ZStL6ignore+0x30>
    2a7d:	48 8d 3d bc 35 00 00 	lea    0x35bc(%rip),%rdi        # 6040 <_ZSt4cout@@GLIBCXX_3.4>
    2a84:	e8 f7 e7 ff ff       	callq  1280 <_ZStlsISt11char_traitsIcEERSt13basic_ostreamIcT_ES5_PKc@plt>
    2a89:	b8 00 00 00 00       	mov    $0x0,%eax
    2a8e:	c9                   	leaveq 
    2a8f:	c3                   	retq   

0000000000002a90 <_Z41__static_initialization_and_destruction_0ii>:
    2a90:	f3 0f 1e fa          	endbr64 
    2a94:	55                   	push   %rbp
    2a95:	48 89 e5             	mov    %rsp,%rbp
    2a98:	48 83 ec 10          	sub    $0x10,%rsp
    2a9c:	89 7d fc             	mov    %edi,-0x4(%rbp)
    2a9f:	89 75 f8             	mov    %esi,-0x8(%rbp)
    2aa2:	83 7d fc 01          	cmpl   $0x1,-0x4(%rbp)
    2aa6:	75 32                	jne    2ada <_Z41__static_initialization_and_destruction_0ii+0x4a>
    2aa8:	81 7d f8 ff ff 00 00 	cmpl   $0xffff,-0x8(%rbp)
    2aaf:	75 29                	jne    2ada <_Z41__static_initialization_and_destruction_0ii+0x4a>
    2ab1:	48 8d 3d f2 36 00 00 	lea    0x36f2(%rip),%rdi        # 61aa <_ZStL8__ioinit>
    2ab8:	e8 43 e8 ff ff       	callq  1300 <_ZNSt8ios_base4InitC1Ev@plt>
    2abd:	48 8d 15 44 35 00 00 	lea    0x3544(%rip),%rdx        # 6008 <__dso_handle>
    2ac4:	48 8d 35 df 36 00 00 	lea    0x36df(%rip),%rsi        # 61aa <_ZStL8__ioinit>
    2acb:	48 8b 05 26 35 00 00 	mov    0x3526(%rip),%rax        # 5ff8 <_ZNSt8ios_base4InitD1Ev@GLIBCXX_3.4>
    2ad2:	48 89 c7             	mov    %rax,%rdi
    2ad5:	e8 86 e7 ff ff       	callq  1260 <__cxa_atexit@plt>
    2ada:	90                   	nop
    2adb:	c9                   	leaveq 
    2adc:	c3                   	retq   

0000000000002add <_GLOBAL__sub_I__Z11thread_funcv>:
    2add:	f3 0f 1e fa          	endbr64 
    2ae1:	55                   	push   %rbp
    2ae2:	48 89 e5             	mov    %rsp,%rbp
    2ae5:	be ff ff 00 00       	mov    $0xffff,%esi
    2aea:	bf 01 00 00 00       	mov    $0x1,%edi
    2aef:	e8 9c ff ff ff       	callq  2a90 <_Z41__static_initialization_and_destruction_0ii>
    2af4:	5d                   	pop    %rbp
    2af5:	c3                   	retq   

0000000000002af6 <_Z7recursev>:
    2af6:	f3 0f 1e fa          	endbr64 
    2afa:	55                   	push   %rbp
    2afb:	48 89 e5             	mov    %rsp,%rbp
    2afe:	48 83 ec 10          	sub    $0x10,%rsp
    2b02:	64 48 8b 04 25 28 00 	mov    %fs:0x28,%rax
    2b09:	00 00 
    2b0b:	48 89 45 f8          	mov    %rax,-0x8(%rbp)
    2b0f:	31 c0                	xor    %eax,%eax
    2b11:	48 8d 45 f4          	lea    -0xc(%rbp),%rax
    2b15:	48 89 c6             	mov    %rax,%rsi
    2b18:	48 8d 3d 37 07 00 00 	lea    0x737(%rip),%rdi        # 3256 <_ZStL6ignore+0x49>
    2b1f:	b8 00 00 00 00       	mov    $0x0,%eax
    2b24:	e8 a7 e6 ff ff       	callq  11d0 <printf@plt>
    2b29:	e8 c8 ff ff ff       	callq  2af6 <_Z7recursev>
    2b2e:	90                   	nop
    2b2f:	48 8b 45 f8          	mov    -0x8(%rbp),%rax
    2b33:	64 48 33 04 25 28 00 	xor    %fs:0x28,%rax
    2b3a:	00 00 
    2b3c:	74 05                	je     2b43 <_Z7recursev+0x4d>
    2b3e:	e8 6d e7 ff ff       	callq  12b0 <__stack_chk_fail@plt>
    2b43:	c9                   	leaveq 
    2b44:	c3                   	retq   

0000000000002b45 <_Z16testMainOverflowv>:
    2b45:	f3 0f 1e fa          	endbr64 
    2b49:	55                   	push   %rbp
    2b4a:	48 89 e5             	mov    %rsp,%rbp
    2b4d:	e8 a4 ff ff ff       	callq  2af6 <_Z7recursev>
    2b52:	90                   	nop
    2b53:	5d                   	pop    %rbp
    2b54:	c3                   	retq   
    2b55:	66 2e 0f 1f 84 00 00 	nopw   %cs:0x0(%rax,%rax,1)
    2b5c:	00 00 00 
    2b5f:	90                   	nop

0000000000002b60 <__libc_csu_init>:
    2b60:	f3 0f 1e fa          	endbr64 
    2b64:	41 57                	push   %r15
    2b66:	4c 8d 3d 53 31 00 00 	lea    0x3153(%rip),%r15        # 5cc0 <__frame_dummy_init_array_entry>
    2b6d:	41 56                	push   %r14
    2b6f:	49 89 d6             	mov    %rdx,%r14
    2b72:	41 55                	push   %r13
    2b74:	49 89 f5             	mov    %rsi,%r13
    2b77:	41 54                	push   %r12
    2b79:	41 89 fc             	mov    %edi,%r12d
    2b7c:	55                   	push   %rbp
    2b7d:	48 8d 2d 5c 31 00 00 	lea    0x315c(%rip),%rbp        # 5ce0 <__do_global_dtors_aux_fini_array_entry>
    2b84:	53                   	push   %rbx
    2b85:	4c 29 fd             	sub    %r15,%rbp
    2b88:	48 83 ec 08          	sub    $0x8,%rsp
    2b8c:	e8 6f e4 ff ff       	callq  1000 <_init>
    2b91:	48 c1 fd 03          	sar    $0x3,%rbp
    2b95:	74 1f                	je     2bb6 <__libc_csu_init+0x56>
    2b97:	31 db                	xor    %ebx,%ebx
    2b99:	0f 1f 80 00 00 00 00 	nopl   0x0(%rax)
    2ba0:	4c 89 f2             	mov    %r14,%rdx
    2ba3:	4c 89 ee             	mov    %r13,%rsi
    2ba6:	44 89 e7             	mov    %r12d,%edi
    2ba9:	41 ff 14 df          	callq  *(%r15,%rbx,8)
    2bad:	48 83 c3 01          	add    $0x1,%rbx
    2bb1:	48 39 dd             	cmp    %rbx,%rbp
    2bb4:	75 ea                	jne    2ba0 <__libc_csu_init+0x40>
    2bb6:	48 83 c4 08          	add    $0x8,%rsp
    2bba:	5b                   	pop    %rbx
    2bbb:	5d                   	pop    %rbp
    2bbc:	41 5c                	pop    %r12
    2bbe:	41 5d                	pop    %r13
    2bc0:	41 5e                	pop    %r14
    2bc2:	41 5f                	pop    %r15
    2bc4:	c3                   	retq   
    2bc5:	66 66 2e 0f 1f 84 00 	data16 nopw %cs:0x0(%rax,%rax,1)
    2bcc:	00 00 00 00 

0000000000002bd0 <__libc_csu_fini>:
    2bd0:	f3 0f 1e fa          	endbr64 
    2bd4:	c3                   	retq   

Disassembly of section .fini:

0000000000002bd8 <_fini>:
    2bd8:	f3 0f 1e fa          	endbr64 
    2bdc:	48 83 ec 08          	sub    $0x8,%rsp
    2be0:	48 83 c4 08          	add    $0x8,%rsp
    2be4:	c3                   	retq   
